(lp0
(lp1
I39
aI-1322
aI1324
aI-643
aI926
aI-952
aI518
aI-226
aI-1099
aI515
aI4
aI252
aI-64
aI-1003
aI-415
aI126
aI736
aI553
aI502
aI-679
aI642
aI257
aI917
aI-151
aI1040
aI-825
aI762
aI-106
aI84
aI-122
aI475
aI418
aI333
aI60
aI-75
aI-406
aI956
aI297
aI314
aI1578
aI-100
aI159
aI-1204
aI696
aI-388
aI-561
aI1073
aI476
aI288
aI16
aI6
aI382
aI-275
aI179
aI251
aI-81
aI-1060
aI-239
aI-19
aI1945
aI-248
aI-1571
aI372
aI782
aI-102
aI347
aI1822
aI209
aI157
aI1321
aI314
aI-1491
aI830
aI529
aI94
aI665
aI-565
aI1014
aI691
aI-557
aI728
aI-210
aI-889
aI-473
aI-1113
aI-128
aI130
aI970
aI651
aI1324
aI628
aI350
aI142
aI-398
aI79
aI195
aI62
aI547
aI845
aI-1302
aI419
aI700
aI-236
aI-48
aI-240
aI-554
aI-209
aI-236
aI63
aI-747
aI-224
aI797
aI-51
aI348
aI559
aI-63
aI-75
aI-113
aI-39
aI4
aa(lp2
I-223
aI-550
aI1470
aI-626
aI585
aI826
aI-697
aI-1
aI-1147
aI-1699
aI-51
aI-517
aI712
aI-610
aI261
aI340
aI1448
aI-279
aI554
aI-855
aI186
aI-263
aI570
aI138
aI347
aI-497
aI706
aI-581
aI-1041
aI623
aI379
aI1006
aI378
aI-603
aI337
aI-561
aI-213
aI-382
aI-944
aI308
aI1724
aI-211
aI23
aI-202
aI-537
aI-341
aI-24
aI-338
aI181
aI-18
aI-613
aI18
aI340
aI-676
aI336
aI832
aI-861
aI866
aI-585
aI-330
aI713
aI101
aI-771
aI589
aI-1581
aI1442
aI260
aI-590
aI812
aI466
aI443
aI-62
aI1338
aI553
aI-1190
aI478
aI-268
aI225
aI-599
aI85
aI-551
aI321
aI70
aI404
aI260
aI1131
aI-1110
aI573
aI766
aI-387
aI1563
aI-1026
aI-408
aI-1041
aI437
aI555
aI106
aI569
aI-498
aI-355
aI-284
aI588
aI1101
aI456
aI291
aI-408
aI-379
aI60
aI93
aI-285
aI513
aI148
aI805
aI345
aI290
aI-332
aI242
aI-9
aI-4
aI1
aa(lp3
I-1410
aI1321
aI-1470
aI811
aI-320
aI416
aI-222
aI940
aI-1680
aI-352
aI701
aI-698
aI923
aI785
aI875
aI1343
aI1177
aI-163
aI813
aI-755
aI303
aI-2572
aI-1159
aI175
aI-201
aI-519
aI-509
aI-1071
aI810
aI-2280
aI-753
aI764
aI2196
aI372
aI1173
aI1680
aI349
aI879
aI-669
aI262
aI-1604
aI753
aI330
aI319
aI-727
aI-125
aI47
aI1140
aI-1949
aI-901
aI265
aI-1434
aI1065
aI344
aI1615
aI29
aI1724
aI-1415
aI1808
aI44
aI-1463
aI-943
aI714
aI-430
aI-1350
aI557
aI1908
aI569
aI-899
aI972
aI-727
aI-1080
aI-342
aI173
aI198
aI1176
aI-451
aI-1321
aI-1936
aI266
aI1217
aI-840
aI-1146
aI622
aI2164
aI-599
aI-1165
aI167
aI905
aI-1167
aI214
aI-389
aI-1304
aI2037
aI1111
aI-909
aI-309
aI905
aI-314
aI1106
aI-323
aI-1004
aI-960
aI163
aI-623
aI-192
aI715
aI583
aI-1089
aI477
aI-583
aI182
aI-314
aI316
aI-62
aI380
aI-7
aI-35
aI0
aI0
aa(lp4
I-1334
aI-760
aI-737
aI-191
aI161
aI-62
aI721
aI-407
aI-1191
aI-70
aI-425
aI958
aI-1655
aI2626
aI-974
aI1837
aI1348
aI-434
aI1715
aI-514
aI-877
aI1063
aI-1389
aI401
aI-141
aI-400
aI304
aI-950
aI1375
aI-1555
aI-1883
aI185
aI710
aI-34
aI8
aI1619
aI523
aI1407
aI-2971
aI-71
aI-1424
aI645
aI5
aI619
aI121
aI89
aI-900
aI-1199
aI66
aI747
aI438
aI-1884
aI-958
aI-1962
aI2156
aI198
aI-124
aI1043
aI1462
aI-528
aI-1123
aI-2509
aI-1109
aI180
aI-633
aI-618
aI-1342
aI1066
aI1290
aI2107
aI-821
aI-1299
aI653
aI1215
aI-497
aI-344
aI-23
aI-1424
aI1669
aI-47
aI263
aI290
aI-574
aI-972
aI-629
aI-1849
aI-293
aI-1091
aI-980
aI-1062
aI-152
aI354
aI-1639
aI545
aI901
aI428
aI1316
aI1093
aI-1206
aI13
aI-512
aI-1208
aI428
aI-375
aI-629
aI-801
aI-1616
aI-958
aI-90
aI-363
aI178
aI413
aI-486
aI289
aI261
aI86
aI0
aI0
aI0
aI0
aa(lp5
I-667
aI1546
aI-1405
aI-467
aI1776
aI131
aI-1566
aI137
aI-83
aI-681
aI-692
aI1601
aI2130
aI-948
aI1754
aI755
aI-198
aI785
aI-627
aI-687
aI-140
aI-3337
aI-2223
aI130
aI-367
aI-1430
aI111
aI1679
aI-2090
aI-1909
aI4
aI-869
aI-49
aI217
aI446
aI2938
aI1954
aI522
aI-502
aI-121
aI-257
aI376
aI450
aI-272
aI39
aI-1868
aI-173
aI2155
aI-2908
aI-556
aI-1567
aI94
aI-208
aI-381
aI358
aI-1521
aI120
aI-1826
aI847
aI-767
aI-846
aI795
aI1144
aI1078
aI-924
aI-297
aI2555
aI-1403
aI-1082
aI147
aI1477
aI976
aI391
aI-1365
aI462
aI1446
aI-847
aI-914
aI-1077
aI-1212
aI-153
aI770
aI4
aI-514
aI926
aI190
aI-347
aI1432
aI-183
aI-638
aI-107
aI-1599
aI738
aI-780
aI1323
aI834
aI-1094
aI711
aI1105
aI-646
aI1051
aI798
aI-1329
aI-813
aI-360
aI619
aI-829
aI-413
aI-428
aI-530
aI-795
aI779
aI-1
aI-298
aI-200
aI32
aI13
aI3
aI0
aI0
aa(lp6
I399
aI-1501
aI765
aI491
aI-2558
aI477
aI-25
aI-551
aI2197
aI1726
aI-1408
aI-1590
aI-1353
aI-2208
aI1040
aI-36
aI1
aI-348
aI-1335
aI-1188
aI695
aI1010
aI1328
aI441
aI79
aI1147
aI342
aI-790
aI745
aI1396
aI1458
aI-859
aI-761
aI-727
aI-525
aI-2960
aI-38
aI-2459
aI1860
aI159
aI-871
aI857
aI-1627
aI468
aI89
aI1599
aI2898
aI868
aI-939
aI1223
aI2566
aI1725
aI169
aI-785
aI-401
aI565
aI-100
aI-555
aI214
aI1252
aI-421
aI-312
aI503
aI140
aI-339
aI-859
aI-961
aI1644
aI-123
aI209
aI-645
aI-1685
aI-907
aI523
aI447
aI-1252
aI804
aI490
aI834
aI-373
aI836
aI-957
aI650
aI910
aI-2035
aI-185
aI1444
aI143
aI623
aI1163
aI1224
aI1216
aI545
aI160
aI-1927
aI-738
aI-8
aI990
aI897
aI992
aI675
aI-623
aI2272
aI31
aI890
aI672
aI-705
aI-92
aI-974
aI325
aI194
aI-471
aI18
aI-81
aI195
aI-30
aI0
aI0
aI0
aI0
aa(lp7
I2767
aI1905
aI-45
aI-956
aI1604
aI565
aI-232
aI15
aI503
aI-1066
aI-694
aI640
aI2381
aI499
aI-1532
aI-616
aI-370
aI-949
aI175
aI326
aI2413
aI-1526
aI488
aI399
aI-1205
aI-1293
aI552
aI2294
aI-1651
aI620
aI-1621
aI1061
aI-1258
aI-1227
aI-525
aI135
aI-879
aI-1516
aI-640
aI-1387
aI401
aI-851
aI1009
aI-759
aI593
aI-1223
aI-2047
aI-420
aI470
aI-611
aI-903
aI1917
aI-466
aI-175
aI-1496
aI-384
aI892
aI-576
aI-974
aI-1679
aI1457
aI2728
aI-1023
aI1616
aI1166
aI-878
aI760
aI-1795
aI-27
aI-2040
aI362
aI2612
aI-202
aI-2750
aI376
aI-433
aI-1980
aI760
aI144
aI-2091
aI356
aI-807
aI117
aI417
aI-161
aI1774
aI-118
aI2463
aI601
aI466
aI-279
aI-581
aI1906
aI-2906
aI59
aI1721
aI-508
aI-628
aI-24
aI-1389
aI62
aI1878
aI-331
aI220
aI445
aI-209
aI-329
aI739
aI847
aI-303
aI95
aI-541
aI161
aI-424
aI-228
aI-137
aI-3
aI-20
aI0
aI0
aa(lp8
I330
aI-659
aI-31
aI1616
aI1144
aI1083
aI-1012
aI1850
aI-886
aI-1119
aI-564
aI-175
aI-341
aI1635
aI-3571
aI299
aI625
aI-370
aI-139
aI-1210
aI-882
aI1213
aI391
aI286
aI-552
aI-1716
aI-548
aI310
aI412
aI-810
aI-1189
aI2557
aI-705
aI853
aI271
aI331
aI-457
aI569
aI-48
aI-889
aI-1231
aI-1215
aI-93
aI-1020
aI-1291
aI-53
aI-86
aI825
aI233
aI338
aI642
aI-788
aI294
aI-1188
aI-190
aI1998
aI-732
aI782
aI314
aI335
aI-114
aI-124
aI-1226
aI-241
aI1675
aI-1486
aI-852
aI247
aI1935
aI-187
aI1088
aI1454
aI-471
aI2213
aI43
aI-430
aI-1621
aI-522
aI510
aI813
aI-1617
aI578
aI61
aI-1339
aI-331
aI186
aI1253
aI1074
aI-835
aI1058
aI-2025
aI92
aI180
aI-1510
aI747
aI-1189
aI969
aI154
aI-2050
aI297
aI296
aI-62
aI390
aI-297
aI-1523
aI-793
aI-1859
aI-691
aI806
aI155
aI573
aI-796
aI-152
aI-302
aI-93
aI-222
aI-16
aI-23
aI0
aI0
aa(lp9
I1915
aI-303
aI-270
aI1346
aI-2622
aI-1863
aI1360
aI-1923
aI1773
aI1119
aI-1824
aI-2109
aI-20
aI-475
aI-250
aI-1402
aI162
aI538
aI-523
aI1059
aI-53
aI1885
aI1079
aI1063
aI803
aI2026
aI461
aI503
aI17
aI927
aI1686
aI-4168
aI-1036
aI100
aI188
aI-2502
aI489
aI-369
aI1715
aI491
aI789
aI1420
aI-331
aI1754
aI1572
aI964
aI860
aI-1439
aI-346
aI816
aI87
aI366
aI-119
aI-392
aI202
aI262
aI3
aI216
aI-315
aI2291
aI1396
aI-96
aI-520
aI486
aI-192
aI427
aI-1291
aI-7
aI51
aI-293
aI-2125
aI-3853
aI-478
aI299
aI-310
aI-2855
aI1349
aI581
aI574
aI1619
aI1165
aI-936
aI787
aI980
aI-1374
aI485
aI1188
aI-431
aI681
aI1301
aI985
aI1133
aI-172
aI-552
aI-2189
aI438
aI-165
aI-1649
aI509
aI53
aI345
aI-1579
aI119
aI171
aI1899
aI1853
aI2018
aI-392
aI-1086
aI79
aI226
aI440
aI6
aI419
aI98
aI-253
aI85
aI7
aI0
aI0
aa(lp10
I2747
aI1586
aI749
aI-1937
aI-306
aI-386
aI627
aI-1859
aI688
aI-759
aI-196
aI-1400
aI3
aI1984
aI-727
aI-1265
aI193
aI-897
aI428
aI2541
aI244
aI-484
aI1099
aI790
aI422
aI885
aI1054
aI1181
aI1335
aI323
aI-327
aI-2127
aI-782
aI-1952
aI-1124
aI-72
aI62
aI1017
aI-1244
aI-1246
aI1276
aI-1979
aI1502
aI963
aI2146
aI-2678
aI-1275
aI-1124
aI3196
aI317
aI-1809
aI1271
aI-674
aI-1034
aI-326
aI-564
aI448
aI-1
aI-473
aI198
aI1164
aI786
aI-847
aI652
aI-1112
aI386
aI-1652
aI-1828
aI298
aI-1294
aI1345
aI1325
aI-237
aI-957
aI634
aI-2673
aI23
aI1671
aI29
aI-1936
aI1675
aI-2187
aI456
aI666
aI-222
aI2116
aI1068
aI-336
aI1045
aI52
aI-1116
aI-447
aI991
aI-916
aI-895
aI1972
aI-343
aI-625
aI744
aI-89
aI-403
aI-9
aI-744
aI611
aI651
aI448
aI932
aI415
aI141
aI-74
aI768
aI528
aI-253
aI33
aI1
aI0
aI0
aI0
aI0
aI0
aa(lp11
I-682
aI1373
aI311
aI-2184
aI-1001
aI803
aI338
aI-314
aI-555
aI-157
aI3538
aI-948
aI1573
aI347
aI-482
aI1144
aI95
aI-3894
aI-213
aI1288
aI1912
aI-1659
aI220
aI214
aI267
aI-1736
aI720
aI51
aI-77
aI-990
aI-1093
aI493
aI809
aI-1744
aI288
aI747
aI-320
aI410
aI596
aI904
aI537
aI-1321
aI747
aI-17
aI970
aI-2672
aI-1066
aI337
aI-266
aI-293
aI-1372
aI1164
aI-190
aI-1273
aI-1644
aI-783
aI1852
aI-1161
aI-1401
aI1046
aI-48
aI1213
aI1019
aI158
aI-2064
aI1963
aI2651
aI-264
aI-2212
aI-2395
aI1356
aI662
aI902
aI-1733
aI1477
aI1681
aI-1152
aI1188
aI-600
aI-2157
aI646
aI-2271
aI673
aI690
aI518
aI427
aI-758
aI-140
aI730
aI692
aI-758
aI-854
aI236
aI-685
aI-68
aI863
aI-336
aI-363
aI742
aI25
aI-725
aI634
aI-1276
aI952
aI-903
aI-551
aI-9
aI1542
aI-29
aI194
aI643
aI-189
aI332
aI-121
aI-53
aI244
aI-41
aI-41
aI0
aI0
aa(lp12
I1802
aI460
aI-510
aI708
aI982
aI429
aI-1363
aI94
aI-607
aI-762
aI-916
aI-1526
aI158
aI-498
aI293
aI-2974
aI-392
aI1582
aI-376
aI-1222
aI1031
aI696
aI1852
aI-902
aI-29
aI1152
aI-1178
aI999
aI247
aI1137
aI-14
aI1180
aI-320
aI526
aI-2074
aI-1688
aI-656
aI-2413
aI1206
aI-1331
aI793
aI-2451
aI-1267
aI-511
aI-1408
aI1135
aI1482
aI-147
aI329
aI-604
aI-391
aI1471
aI986
aI15
aI-1609
aI2212
aI629
aI639
aI554
aI-122
aI1654
aI1298
aI548
aI-119
aI1990
aI712
aI-1087
aI-1030
aI1024
aI-34
aI-955
aI2191
aI-1850
aI990
aI-706
aI-1096
aI1242
aI1588
aI-218
aI68
aI-441
aI-26
aI-32
aI524
aI779
aI291
aI-99
aI2450
aI287
aI1097
aI-1229
aI211
aI1614
aI-1183
aI827
aI1068
aI27
aI-349
aI-150
aI1060
aI940
aI428
aI614
aI1131
aI293
aI-543
aI1558
aI680
aI80
aI168
aI-522
aI-165
aI223
aI-612
aI-75
aI76
aI-44
aI34
aI0
aI0
aa(lp13
I-1970
aI-1218
aI-1314
aI-104
aI-394
aI221
aI53
aI-401
aI1130
aI-556
aI1012
aI139
aI137
aI-2457
aI700
aI1151
aI-2101
aI-1978
aI-2537
aI-908
aI-1186
aI895
aI-1344
aI285
aI-1472
aI-502
aI-2351
aI-220
aI-1168
aI891
aI-688
aI640
aI897
aI1276
aI-246
aI-870
aI-796
aI-2105
aI2375
aI140
aI711
aI-752
aI1270
aI-1199
aI354
aI1314
aI2194
aI1138
aI-2532
aI-521
aI1454
aI1483
aI-81
aI-890
aI-1419
aI148
aI383
aI-1024
aI259
aI839
aI-1394
aI1775
aI1543
aI-437
aI148
aI241
aI527
aI403
aI-1137
aI-1514
aI834
aI-328
aI-148
aI2565
aI703
aI1843
aI1723
aI-1052
aI543
aI637
aI-2074
aI2466
aI1808
aI69
aI2015
aI-724
aI238
aI-511
aI-918
aI193
aI-746
aI-87
aI164
aI608
aI805
aI198
aI264
aI-114
aI477
aI1168
aI1261
aI-768
aI188
aI-512
aI228
aI2101
aI-1532
aI323
aI-260
aI-468
aI422
aI-1000
aI925
aI-1176
aI-523
aI-198
aI41
aI107
aI39
aI-4
aa(lp14
I1946
aI-590
aI-848
aI-1074
aI888
aI-585
aI-883
aI-806
aI1547
aI-1116
aI-1832
aI-357
aI995
aI-1177
aI-902
aI-819
aI-1267
aI42
aI-1371
aI1060
aI-638
aI-4
aI1107
aI1822
aI-568
aI859
aI233
aI2660
aI-1857
aI402
aI1804
aI-912
aI-1373
aI-519
aI173
aI-779
aI450
aI967
aI-29
aI-935
aI2284
aI114
aI2959
aI-494
aI686
aI-267
aI714
aI996
aI314
aI-943
aI-1165
aI1738
aI1504
aI-20
aI301
aI1440
aI259
aI-64
aI-1298
aI357
aI-66
aI1791
aI-21
aI1666
aI790
aI-948
aI165
aI-1610
aI455
aI-881
aI1680
aI-121
aI839
aI1969
aI2118
aI-1618
aI-464
aI588
aI-369
aI376
aI128
aI1235
aI-226
aI-747
aI1299
aI1324
aI796
aI1528
aI-90
aI1694
aI1039
aI615
aI-78
aI156
aI-1052
aI1282
aI-582
aI-1949
aI640
aI-2027
aI1156
aI609
aI-1170
aI1167
aI1141
aI1214
aI696
aI-153
aI-204
aI-750
aI159
aI-571
aI-342
aI-399
aI-508
aI-181
aI-38
aI178
aI12
aI-1
aa(lp15
I-1400
aI-369
aI-188
aI990
aI-1458
aI1149
aI-1520
aI119
aI-1384
aI1498
aI1234
aI-1024
aI-48
aI-138
aI414
aI-444
aI424
aI-698
aI-1064
aI-1483
aI122
aI689
aI543
aI680
aI341
aI-1658
aI-77
aI-92
aI1358
aI-2601
aI-135
aI-444
aI1636
aI1486
aI183
aI962
aI1418
aI995
aI758
aI274
aI-2273
aI-1285
aI-1994
aI1005
aI-2720
aI-604
aI2393
aI1890
aI-1210
aI3402
aI-350
aI-483
aI-688
aI-2342
aI-952
aI715
aI-376
aI-1037
aI2695
aI1550
aI-1598
aI-2596
aI1166
aI-1332
aI-1628
aI-319
aI-488
aI64
aI12
aI321
aI583
aI196
aI-1464
aI116
aI450
aI1087
aI575
aI-894
aI673
aI-51
aI-123
aI-2330
aI-222
aI-1169
aI-1030
aI-1599
aI1795
aI101
aI1019
aI109
aI-2478
aI-654
aI1005
aI-1150
aI61
aI-1129
aI424
aI2619
aI-103
aI1802
aI-900
aI-1853
aI-125
aI-941
aI-1664
aI371
aI-1799
aI-973
aI-1916
aI496
aI717
aI-48
aI-190
aI-343
aI22
aI-39
aI0
aI0
aI0
aI0
aa(lp16
I-762
aI-425
aI507
aI732
aI-2911
aI846
aI70
aI860
aI757
aI-164
aI-1050
aI-2711
aI-1663
aI-352
aI-235
aI1257
aI1912
aI-1425
aI-2142
aI534
aI-1687
aI15
aI-256
aI175
aI1198
aI176
aI1676
aI-2444
aI1224
aI-1404
aI869
aI-1505
aI-635
aI-942
aI1239
aI306
aI216
aI1129
aI-330
aI464
aI-1649
aI155
aI63
aI-1153
aI491
aI-1044
aI1327
aI444
aI-1081
aI-223
aI1852
aI-600
aI1256
aI-397
aI247
aI439
aI514
aI182
aI184
aI2232
aI-1574
aI-989
aI317
aI759
aI-736
aI149
aI670
aI1557
aI-206
aI228
aI1235
aI-1753
aI-1283
aI2330
aI-144
aI143
aI648
aI841
aI-1965
aI599
aI972
aI-387
aI2226
aI377
aI156
aI-155
aI89
aI48
aI98
aI190
aI-947
aI359
aI130
aI1661
aI354
aI-2377
aI-368
aI-672
aI468
aI2520
aI87
aI-1591
aI556
aI296
aI-1611
aI-197
aI-500
aI139
aI50
aI1582
aI335
aI235
aI-489
aI575
aI-64
aI348
aI119
aI-145
aI-12
aI1
aa(lp17
I676
aI563
aI-1233
aI-513
aI-1923
aI-1036
aI237
aI-35
aI-307
aI185
aI2287
aI-1463
aI219
aI4
aI872
aI-510
aI-376
aI-1004
aI-840
aI2569
aI-296
aI591
aI1048
aI910
aI1144
aI573
aI472
aI208
aI1122
aI-3560
aI805
aI-2904
aI1631
aI413
aI1229
aI2295
aI719
aI2966
aI-237
aI936
aI269
aI-398
aI1604
aI465
aI113
aI-2022
aI271
aI288
aI907
aI1221
aI-1745
aI-2411
aI652
aI928
aI1141
aI151
aI370
aI1723
aI-645
aI1623
aI-1071
aI-2211
aI318
aI-451
aI-458
aI2151
aI1760
aI-1053
aI-343
aI238
aI767
aI-2384
aI798
aI-860
aI1345
aI815
aI670
aI1291
aI-469
aI1059
aI610
aI-1597
aI108
aI-520
aI1682
aI-1240
aI-1778
aI-1023
aI154
aI-619
aI73
aI-375
aI-1139
aI1499
aI397
aI-1523
aI508
aI-1659
aI996
aI328
aI-1693
aI-1674
aI-2321
aI875
aI-981
aI625
aI-253
aI162
aI-25
aI895
aI1327
aI-153
aI-619
aI970
aI-270
aI253
aI51
aI-64
aI0
aI0
aa(lp18
I-61
aI-1653
aI114
aI1376
aI-1794
aI-465
aI925
aI744
aI-2
aI-234
aI-2267
aI-424
aI-1352
aI1339
aI-1243
aI1081
aI1646
aI1023
aI204
aI-271
aI-2964
aI1353
aI911
aI65
aI131
aI-6
aI-780
aI-828
aI689
aI-856
aI313
aI-918
aI653
aI333
aI697
aI655
aI48
aI651
aI538
aI-149
aI474
aI1571
aI1022
aI95
aI977
aI1
aI2781
aI-954
aI226
aI-113
aI1754
aI-2872
aI-97
aI76
aI1966
aI-594
aI-1673
aI298
aI349
aI745
aI-446
aI-383
aI-2453
aI229
aI347
aI-182
aI305
aI1350
aI757
aI2267
aI-45
aI-3275
aI392
aI2020
aI-91
aI-898
aI-345
aI-831
aI1551
aI1857
aI-260
aI890
aI302
aI-797
aI-89
aI-721
aI859
aI-247
aI39
aI-257
aI834
aI53
aI-549
aI1310
aI-355
aI-2114
aI323
aI36
aI-503
aI449
aI1319
aI-1791
aI-42
aI-218
aI-395
aI987
aI-1781
aI-662
aI1600
aI670
aI1274
aI-750
aI-44
aI1253
aI332
aI-321
aI171
aI-122
aI-13
aI1
aa(lp19
I-352
aI21
aI712
aI-2331
aI706
aI787
aI1081
aI-1243
aI473
aI79
aI2141
aI-516
aI-138
aI1539
aI-1537
aI408
aI531
aI-1494
aI-960
aI72
aI-40
aI603
aI-1530
aI609
aI1349
aI-1818
aI-107
aI-370
aI814
aI14
aI-1435
aI974
aI-589
aI-465
aI-827
aI-312
aI997
aI-839
aI1321
aI993
aI-23
aI-2503
aI-2646
aI433
aI418
aI577
aI831
aI412
aI-86
aI-558
aI-997
aI1168
aI-487
aI-2609
aI-1027
aI-332
aI148
aI-1487
aI1133
aI798
aI14
aI-806
aI285
aI-1747
aI-977
aI510
aI-1425
aI790
aI261
aI-1093
aI-271
aI1364
aI-376
aI316
aI-1034
aI-662
aI-967
aI351
aI1547
aI-1687
aI-1145
aI-1081
aI352
aI1306
aI-992
aI358
aI754
aI-1847
aI-1000
aI710
aI-2261
aI-963
aI-400
aI-2150
aI-204
aI503
aI386
aI989
aI623
aI899
aI993
aI544
aI-171
aI-67
aI-220
aI-1352
aI-426
aI495
aI-380
aI-1012
aI153
aI661
aI305
aI-536
aI351
aI133
aI-92
aI23
aI0
aI0
aa(lp20
I529
aI2678
aI-1132
aI245
aI-1012
aI-910
aI1893
aI-172
aI-872
aI258
aI2466
aI-1933
aI851
aI1220
aI-847
aI1673
aI363
aI-2580
aI445
aI-210
aI148
aI-158
aI-619
aI-141
aI-1480
aI-15
aI162
aI-142
aI1082
aI-1047
aI-2844
aI-157
aI1156
aI-304
aI-303
aI-180
aI-463
aI154
aI-1032
aI535
aI-1166
aI-671
aI567
aI925
aI2419
aI-1483
aI-1348
aI-87
aI-954
aI-337
aI969
aI150
aI-916
aI-852
aI-467
aI-377
aI3088
aI-1029
aI1363
aI2667
aI1237
aI415
aI1508
aI238
aI-1414
aI1667
aI1554
aI-691
aI-722
aI-1319
aI-488
aI-1358
aI-410
aI1075
aI1590
aI-959
aI782
aI232
aI-838
aI-1571
aI2475
aI-934
aI-145
aI2352
aI2042
aI1479
aI-98
aI-965
aI970
aI879
aI-44
aI-428
aI-124
aI1004
aI1178
aI-135
aI814
aI806
aI-111
aI1587
aI-548
aI-89
aI97
aI-439
aI-596
aI-518
aI1708
aI466
aI-996
aI505
aI-506
aI1407
aI-268
aI392
aI-167
aI432
aI80
aI-50
aI0
aI0
aa(lp21
I837
aI-89
aI453
aI1527
aI-839
aI-1033
aI-1139
aI696
aI2284
aI1055
aI-710
aI-55
aI-1863
aI-504
aI2313
aI-450
aI-969
aI2396
aI520
aI-1351
aI-1959
aI2231
aI525
aI-971
aI-489
aI2459
aI-617
aI695
aI357
aI2042
aI1634
aI-1207
aI-725
aI-309
aI-1122
aI-951
aI389
aI-619
aI444
aI-1043
aI681
aI1513
aI-942
aI-544
aI1658
aI1327
aI370
aI-524
aI964
aI701
aI-1011
aI-637
aI1210
aI-297
aI135
aI-532
aI-484
aI596
aI-1663
aI-1062
aI1903
aI563
aI347
aI-1148
aI552
aI748
aI-2487
aI366
aI675
aI2220
aI438
aI-1329
aI756
aI686
aI153
aI-4107
aI1902
aI183
aI1049
aI165
aI85
aI725
aI-168
aI-433
aI-1005
aI-599
aI1008
aI-830
aI-1872
aI649
aI1898
aI944
aI-1108
aI2441
aI-1331
aI-401
aI1286
aI-268
aI-724
aI516
aI2306
aI-63
aI2452
aI28
aI253
aI-235
aI424
aI-759
aI834
aI-381
aI-951
aI399
aI-534
aI257
aI318
aI-124
aI41
aI41
aI0
aI0
aa(lp22
I-784
aI-648
aI1303
aI357
aI247
aI-372
aI595
aI-356
aI791
aI1515
aI-81
aI686
aI-1275
aI-307
aI512
aI-716
aI-397
aI1188
aI201
aI1593
aI429
aI129
aI1213
aI-806
aI1233
aI1244
aI-515
aI-1189
aI909
aI3870
aI2126
aI61
aI-84
aI1504
aI300
aI-2045
aI-1459
aI-971
aI2206
aI1594
aI2090
aI629
aI-685
aI-413
aI-900
aI2198
aI1170
aI608
aI1798
aI-484
aI1429
aI55
aI1073
aI2573
aI1292
aI-1006
aI-2222
aI363
aI-472
aI-33
aI580
aI-816
aI-1164
aI-1183
aI138
aI44
aI246
aI-164
aI-297
aI-31
aI-1208
aI510
aI925
aI144
aI-2141
aI1523
aI76
aI981
aI-874
aI2037
aI-2353
aI897
aI-489
aI75
aI-506
aI311
aI-115
aI-1231
aI-269
aI-618
aI343
aI-149
aI506
aI1294
aI-484
aI-764
aI-51
aI-795
aI1433
aI-722
aI-52
aI375
aI-445
aI-1207
aI1613
aI617
aI1010
aI459
aI918
aI246
aI-63
aI-705
aI783
aI208
aI313
aI-93
aI-24
aI98
aI-1
aI0
aa(lp23
I-1707
aI1313
aI-1587
aI680
aI-653
aI-1873
aI-159
aI-648
aI770
aI1740
aI2652
aI1270
aI1270
aI-57
aI1757
aI2364
aI-718
aI-1173
aI697
aI-222
aI-1789
aI274
aI-1070
aI-647
aI-2268
aI779
aI-788
aI713
aI27
aI934
aI857
aI-1001
aI1637
aI532
aI1200
aI755
aI-166
aI567
aI470
aI-272
aI152
aI3095
aI1623
aI-494
aI1022
aI410
aI-602
aI691
aI-1628
aI1730
aI-130
aI-1902
aI-335
aI-73
aI1451
aI-3451
aI714
aI-1417
aI-1323
aI-767
aI561
aI1304
aI901
aI-370
aI-1717
aI598
aI680
aI-1175
aI-2665
aI144
aI1253
aI-1079
aI1870
aI-1500
aI1574
aI220
aI1877
aI-651
aI328
aI1019
aI-1345
aI1477
aI-27
aI356
aI1604
aI-949
aI-241
aI-1377
aI-727
aI-1293
aI1792
aI-1061
aI-1237
aI1560
aI242
aI-439
aI798
aI307
aI516
aI-174
aI588
aI553
aI-11
aI-1189
aI-756
aI1344
aI-558
aI-443
aI973
aI70
aI420
aI-795
aI908
aI239
aI-75
aI-308
aI52
aI155
aI38
aI-4
aa(lp24
I-447
aI-1386
aI-110
aI-411
aI1869
aI1050
aI-488
aI681
aI-756
aI324
aI1062
aI622
aI-232
aI112
aI-1004
aI-68
aI453
aI346
aI307
aI-284
aI1322
aI-566
aI887
aI245
aI818
aI647
aI-240
aI285
aI586
aI-903
aI1772
aI3350
aI-485
aI-1
aI-62
aI-1544
aI-670
aI262
aI907
aI-9
aI-1219
aI707
aI-1074
aI671
aI-2633
aI735
aI-1172
aI619
aI835
aI444
aI-891
aI1092
aI231
aI406
aI1639
aI2930
aI-500
aI402
aI-1181
aI-740
aI-1396
aI-692
aI903
aI-595
aI1125
aI-1390
aI-39
aI748
aI29
aI243
aI856
aI1742
aI74
aI674
aI1647
aI77
aI-1286
aI-346
aI-217
aI919
aI-1482
aI380
aI-958
aI-242
aI-895
aI1058
aI153
aI200
aI941
aI401
aI750
aI1849
aI-1149
aI-808
aI-1632
aI368
aI-804
aI-773
aI-293
aI-838
aI75
aI1587
aI-131
aI1191
aI-24
aI-497
aI-63
aI272
aI-402
aI-624
aI-270
aI-1174
aI502
aI-1007
aI-152
aI-352
aI-330
aI205
aI25
aI-2
aa(lp25
I-506
aI1280
aI318
aI1526
aI455
aI255
aI1383
aI265
aI-40
aI-1288
aI-2089
aI1934
aI343
aI1867
aI-2180
aI541
aI1456
aI-142
aI-136
aI581
aI-718
aI-464
aI-2095
aI-19
aI1409
aI-1258
aI363
aI328
aI-2072
aI290
aI-792
aI791
aI-278
aI1913
aI1688
aI642
aI-289
aI526
aI76
aI466
aI818
aI186
aI-670
aI-593
aI683
aI595
aI-1352
aI-464
aI-414
aI-2301
aI-826
aI651
aI805
aI346
aI971
aI-504
aI-1189
aI-321
aI368
aI-1283
aI176
aI-297
aI-2127
aI-310
aI1280
aI-1414
aI489
aI-624
aI-659
aI1361
aI-141
aI-117
aI123
aI991
aI-2500
aI286
aI-387
aI-563
aI-1028
aI1310
aI-1952
aI491
aI1395
aI6
aI-67
aI1040
aI285
aI949
aI-519
aI-337
aI-1202
aI-937
aI375
aI-182
aI920
aI-1512
aI-746
aI-2097
aI100
aI-68
aI1909
aI-469
aI-285
aI-1025
aI683
aI607
aI-271
aI832
aI2003
aI-215
aI-294
aI-11
aI45
aI214
aI231
aI-260
aI99
aI-32
aI-13
aI1
aa(lp26
I-28
aI-697
aI1009
aI1203
aI-2332
aI1024
aI-912
aI1217
aI766
aI2254
aI342
aI-1125
aI-1327
aI-1771
aI1522
aI-119
aI-924
aI1464
aI-786
aI578
aI-480
aI704
aI3113
aI-402
aI684
aI495
aI-1373
aI389
aI756
aI698
aI1851
aI-1149
aI-310
aI-213
aI-1139
aI-1536
aI-984
aI-1229
aI3436
aI573
aI453
aI1722
aI-934
aI200
aI-447
aI-581
aI1734
aI-1092
aI1823
aI2389
aI385
aI-1097
aI-72
aI1359
aI-904
aI1186
aI-2216
aI1249
aI-1549
aI1302
aI999
aI1018
aI-996
aI-1488
aI-178
aI1143
aI488
aI174
aI436
aI-1446
aI-672
aI-221
aI376
aI-1179
aI1617
aI104
aI-708
aI-344
aI231
aI1520
aI-1110
aI-1791
aI-145
aI383
aI-1644
aI594
aI1058
aI-757
aI921
aI943
aI2070
aI1043
aI782
aI238
aI-1604
aI-1864
aI1214
aI-349
aI-239
aI498
aI-1024
aI-977
aI192
aI-227
aI-52
aI620
aI420
aI327
aI17
aI1394
aI-61
aI-951
aI-4
aI327
aI-332
aI-89
aI109
aI-169
aI1
aI0
aa(lp27
I1151
aI1120
aI-1368
aI1402
aI-341
aI-271
aI1349
aI-639
aI2716
aI419
aI-129
aI-698
aI424
aI1171
aI-232
aI1059
aI592
aI-893
aI-457
aI-332
aI2010
aI-702
aI-1340
aI1361
aI-1502
aI906
aI-1544
aI-76
aI1953
aI-472
aI-474
aI-1705
aI325
aI-599
aI202
aI-317
aI-1005
aI-1707
aI2703
aI-1054
aI-1879
aI1139
aI17
aI1131
aI1914
aI1352
aI331
aI1521
aI-2073
aI-173
aI1597
aI-871
aI752
aI-217
aI1811
aI-773
aI235
aI-2045
aI1364
aI487
aI-727
aI-1094
aI-45
aI-495
aI-1375
aI398
aI-354
aI980
aI-182
aI-345
aI-1607
aI-1224
aI-589
aI-671
aI-1428
aI-1115
aI-269
aI-252
aI585
aI589
aI-56
aI296
aI-129
aI1893
aI645
aI1403
aI76
aI-969
aI-38
aI-1537
aI-457
aI464
aI-595
aI-928
aI-497
aI1363
aI196
aI-148
aI580
aI1224
aI1831
aI-957
aI-691
aI-636
aI1290
aI1484
aI-115
aI-147
aI-452
aI-432
aI592
aI-605
aI1263
aI-311
aI-87
aI-413
aI-67
aI38
aI39
aI-4
aa(lp28
I-1046
aI1347
aI680
aI-744
aI-83
aI-109
aI592
aI-691
aI-1940
aI1218
aI3237
aI-467
aI-210
aI285
aI1511
aI1722
aI-216
aI-1724
aI1377
aI979
aI481
aI-806
aI451
aI-1017
aI-534
aI-736
aI-4
aI-2189
aI1023
aI855
aI-2222
aI526
aI2656
aI475
aI-1206
aI-640
aI-282
aI-1219
aI362
aI1754
aI-144
aI-2332
aI333
aI1493
aI1021
aI-597
aI464
aI704
aI977
aI30
aI1025
aI2412
aI-1361
aI-503
aI-614
aI-1494
aI2076
aI-2212
aI1959
aI1901
aI335
aI115
aI1525
aI-147
aI-1826
aI1793
aI1445
aI-1259
aI-1724
aI-660
aI82
aI67
aI167
aI817
aI1522
aI1212
aI1128
aI-18
aI-718
aI-1848
aI1651
aI-2317
aI-257
aI1230
aI1022
aI493
aI269
aI-1570
aI2201
aI12
aI1018
aI-722
aI177
aI1749
aI21
aI-603
aI25
aI1843
aI1078
aI477
aI-419
aI-464
aI-45
aI-985
aI-127
aI334
aI-82
aI1318
aI-1390
aI-385
aI-905
aI966
aI242
aI-254
aI424
aI338
aI-99
aI142
aI12
aI-1
aa(lp29
I-1763
aI988
aI-361
aI-1773
aI2441
aI312
aI-745
aI284
aI-1480
aI-694
aI-257
aI2593
aI184
aI2108
aI332
aI1518
aI-539
aI-582
aI3454
aI52
aI-286
aI-1011
aI-1287
aI-230
aI-1648
aI-1110
aI511
aI94
aI-1252
aI164
aI-2865
aI1873
aI1431
aI366
aI-208
aI1502
aI-427
aI421
aI-3421
aI111
aI1441
aI-746
aI2101
aI-555
aI256
aI-135
aI-1234
aI-1971
aI1024
aI64
aI-357
aI440
aI-1510
aI-637
aI646
aI-868
aI877
aI-620
aI1691
aI-2526
aI374
aI547
aI576
aI533
aI-1087
aI566
aI641
aI-706
aI137
aI1445
aI51
aI1043
aI1416
aI1281
aI188
aI623
aI-469
aI-2096
aI1030
aI-1932
aI157
aI1195
aI-1851
aI-766
aI561
aI-1678
aI-471
aI-1550
aI-471
aI-1148
aI1270
aI-1176
aI-756
aI1631
aI822
aI1425
aI129
aI1275
aI-1346
aI-1515
aI-120
aI1414
aI-448
aI-1060
aI-120
aI-1087
aI-832
aI-882
aI-1135
aI-707
aI-1124
aI643
aI-488
aI-490
aI16
aI233
aI9
aI215
aI12
aI-1
aa(lp30
I-273
aI1147
aI-226
aI1414
aI-1360
aI563
aI-1085
aI-455
aI105
aI1379
aI-1571
aI-405
aI811
aI1351
aI-1761
aI-560
aI1482
aI518
aI100
aI-596
aI-1524
aI1154
aI613
aI333
aI307
aI537
aI657
aI1724
aI-488
aI-238
aI1789
aI-511
aI-824
aI951
aI591
aI-1274
aI867
aI758
aI313
aI3
aI696
aI1826
aI-2563
aI-194
aI-1457
aI1021
aI1927
aI-658
aI-956
aI1206
aI-1017
aI-45
aI116
aI-922
aI30
aI390
aI-459
aI-780
aI651
aI-461
aI1329
aI770
aI-2241
aI-907
aI-969
aI-316
aI-1123
aI-1447
aI241
aI711
aI-202
aI-146
aI-399
aI330
aI546
aI-2064
aI-81
aI-452
aI240
aI1122
aI-1285
aI-370
aI-691
aI1544
aI-1440
aI234
aI1502
aI585
aI-31
aI1104
aI-41
aI-1395
aI-363
aI-490
aI-11
aI-2068
aI162
aI95
aI-45
aI1823
aI554
aI306
aI293
aI-685
aI-532
aI-161
aI602
aI-762
aI-407
aI1226
aI274
aI-77
aI-470
aI152
aI-159
aI202
aI143
aI-46
aI-13
aI1
aa(lp31
I-2191
aI-682
aI-52
aI644
aI387
aI1537
aI1048
aI2082
aI-65
aI337
aI12
aI1347
aI-468
aI1019
aI-791
aI1795
aI444
aI-1426
aI-259
aI-409
aI820
aI-121
aI-2473
aI-475
aI-284
aI-1608
aI1016
aI-1954
aI-598
aI-375
aI-1546
aI775
aI-103
aI1282
aI814
aI1147
aI-377
aI237
aI-926
aI1443
aI-1643
aI1527
aI-600
aI-841
aI-1148
aI1269
aI-413
aI556
aI-1764
aI-1223
aI1271
aI1041
aI-775
aI-103
aI771
aI-195
aI655
aI-1280
aI1223
aI-1271
aI-1941
aI-1517
aI-383
aI-40
aI247
aI-1751
aI955
aI1327
aI-307
aI-393
aI-884
aI-135
aI-238
aI210
aI-215
aI3308
aI-2008
aI-2429
aI112
aI98
aI117
aI1439
aI839
aI-529
aI-1122
aI-436
aI-297
aI-1252
aI-571
aI-1019
aI-1129
aI459
aI-924
aI1464
aI-928
aI-692
aI-756
aI462
aI-303
aI345
aI-484
aI-1262
aI-1021
aI-2040
aI-447
aI516
aI-1926
aI-469
aI-863
aI-134
aI-412
aI346
aI320
aI-422
aI-27
aI281
aI-27
aI-79
aI1
aI0
aa(lp32
I-191
aI-172
aI-540
aI-342
aI151
aI-835
aI-192
aI21
aI515
aI957
aI589
aI8
aI-1104
aI438
aI3058
aI-243
aI256
aI1279
aI1637
aI-766
aI1315
aI-1951
aI-723
aI-1066
aI-658
aI2100
aI855
aI-1203
aI2397
aI-334
aI-235
aI-1554
aI-392
aI-1961
aI-1545
aI1277
aI541
aI-652
aI-975
aI-1501
aI-3549
aI549
aI-1955
aI2168
aI1158
aI-877
aI-1067
aI1417
aI-23
aI649
aI1562
aI-967
aI-1360
aI664
aI1158
aI-1329
aI567
aI-968
aI805
aI-1355
aI-983
aI-1694
aI1439
aI329
aI-818
aI-1864
aI-1963
aI1758
aI-150
aI-293
aI-954
aI670
aI-1732
aI-2717
aI-53
aI-920
aI411
aI133
aI632
aI-1847
aI2687
aI-383
aI-904
aI703
aI-1149
aI994
aI-66
aI-1683
aI-194
aI-1978
aI743
aI632
aI-527
aI-81
aI-1147
aI865
aI-78
aI3008
aI64
aI736
aI-1415
aI614
aI1142
aI-402
aI-124
aI-500
aI701
aI-783
aI-1149
aI504
aI-111
aI1374
aI158
aI141
aI138
aI336
aI-124
aI44
aI13
aI-1
aa(lp33
I-25
aI-1059
aI672
aI-839
aI-266
aI-415
aI2589
aI453
aI157
aI1179
aI740
aI3534
aI550
aI957
aI-1663
aI1261
aI-496
aI11
aI-487
aI699
aI210
aI364
aI-1878
aI-398
aI548
aI-1296
aI890
aI-31
aI-1854
aI-2033
aI-176
aI1224
aI-968
aI-712
aI254
aI1567
aI377
aI1593
aI-755
aI904
aI-100
aI1337
aI-836
aI831
aI1295
aI-6
aI-1404
aI-830
aI-100
aI-2387
aI3
aI-707
aI-1866
aI1551
aI-1271
aI-1716
aI-417
aI259
aI-888
aI-1029
aI-2
aI-216
aI-643
aI-224
aI793
aI-119
aI2358
aI1581
aI-546
aI1238
aI-718
aI-317
aI654
aI-1479
aI596
aI878
aI-2188
aI14
aI1775
aI-922
aI1045
aI862
aI-1035
aI-484
aI-1258
aI-758
aI-71
aI-1012
aI-394
aI1133
aI-250
aI708
aI155
aI765
aI-782
aI-318
aI-1282
aI-601
aI210
aI-1309
aI811
aI955
aI-1071
aI523
aI-706
aI-1320
aI-625
aI-136
aI1204
aI-373
aI-321
aI254
aI-509
aI623
aI288
aI170
aI-193
aI-119
aI-49
aI4
aa(lp34
I-2831
aI-2739
aI269
aI1085
aI595
aI1600
aI-1059
aI910
aI-526
aI1981
aI1533
aI-232
aI-1762
aI-1257
aI549
aI899
aI-611
aI-315
aI-1137
aI-1378
aI941
aI1489
aI-512
aI-191
aI-278
aI-540
aI-1194
aI-867
aI477
aI395
aI1329
aI1784
aI725
aI1120
aI-367
aI-1179
aI-1150
aI-566
aI2602
aI814
aI-768
aI349
aI-1294
aI-452
aI-2192
aI2146
aI2110
aI1328
aI-1289
aI1447
aI341
aI911
aI312
aI-1237
aI293
aI2457
aI-1574
aI409
aI184
aI997
aI-1287
aI-2449
aI981
aI-826
aI-1116
aI1468
aI-330
aI741
aI376
aI522
aI-636
aI-19
aI134
aI2769
aI-31
aI2688
aI-182
aI-960
aI773
aI1839
aI-1642
aI594
aI-167
aI-942
aI-826
aI-2146
aI550
aI-572
aI697
aI707
aI-263
aI1054
aI-486
aI492
aI-1059
aI978
aI1287
aI408
aI-479
aI-163
aI483
aI-1817
aI-164
aI-435
aI-345
aI476
aI-1770
aI-313
aI-1954
aI-1329
aI-52
aI-466
aI1015
aI-1583
aI270
aI97
aI-144
aI-111
aI13
aI-1
aa(lp35
I-1568
aI-887
aI-335
aI-185
aI-1997
aI326
aI-282
aI-1000
aI-1137
aI-1467
aI-341
aI1565
aI1395
aI-881
aI-310
aI1733
aI-33
aI-1872
aI508
aI182
aI-735
aI-826
aI-406
aI1350
aI-913
aI-739
aI1182
aI124
aI-2027
aI-2148
aI2
aI-450
aI1197
aI-420
aI1694
aI1015
aI1606
aI2248
aI-1699
aI-616
aI1480
aI154
aI3136
aI1273
aI-409
aI-1649
aI-274
aI620
aI-1500
aI-152
aI476
aI-1206
aI-1673
aI-273
aI-11
aI226
aI747
aI218
aI128
aI841
aI-1353
aI771
aI1048
aI1434
aI-2235
aI66
aI1835
aI-348
aI-1589
aI1223
aI1128
aI-1676
aI2170
aI182
aI2065
aI2474
aI328
aI-522
aI-590
aI253
aI1648
aI226
aI-1008
aI-841
aI1478
aI-329
aI573
aI-99
aI1452
aI141
aI830
aI-465
aI-137
aI448
aI211
aI-520
aI-1796
aI1253
aI-446
aI-2011
aI-1208
aI-354
aI204
aI1094
aI310
aI657
aI-798
aI-1062
aI-1239
aI437
aI641
aI-355
aI-520
aI611
aI-19
aI191
aI102
aI86
aI-2
aI0
aa(lp36
I643
aI-1103
aI-1657
aI-570
aI471
aI-1727
aI619
aI597
aI519
aI-268
aI-996
aI-400
aI-694
aI-716
aI-190
aI-455
aI-751
aI-270
aI-619
aI-919
aI856
aI548
aI-144
aI-670
aI-1098
aI-419
aI-830
aI-260
aI2243
aI1450
aI-612
aI1421
aI-99
aI1126
aI-328
aI91
aI-642
aI-2359
aI88
aI-1316
aI-1888
aI-1722
aI-500
aI-2070
aI-1549
aI2297
aI1683
aI509
aI-287
aI-679
aI3556
aI-1056
aI-309
aI1606
aI1152
aI-101
aI892
aI604
aI316
aI-550
aI-383
aI-1094
aI1267
aI473
aI2936
aI-811
aI805
aI1680
aI43
aI967
aI-1254
aI-246
aI-1656
aI619
aI-785
aI1468
aI779
aI1660
aI1707
aI177
aI-248
aI2505
aI335
aI-80
aI1422
aI-2598
aI-849
aI955
aI-922
aI-30
aI-1734
aI246
aI529
aI973
aI1402
aI-199
aI677
aI117
aI-177
aI-365
aI29
aI378
aI-135
aI-169
aI-709
aI-646
aI-832
aI-43
aI1367
aI750
aI410
aI-1172
aI2
aI-197
aI11
aI531
aI-89
aI-38
aI-7
aI0
aa(lp37
I1810
aI-797
aI-267
aI-1794
aI-1389
aI494
aI-551
aI-199
aI-352
aI-199
aI214
aI-142
aI-303
aI679
aI1987
aI-1760
aI-746
aI292
aI-181
aI555
aI919
aI1304
aI558
aI-21
aI911
aI995
aI683
aI-237
aI-1296
aI521
aI275
aI-417
aI710
aI-1330
aI-1048
aI798
aI-227
aI-206
aI-1073
aI-698
aI1692
aI203
aI-61
aI-484
aI275
aI851
aI323
aI-1403
aI924
aI-566
aI-2022
aI195
aI1024
aI-1726
aI-694
aI281
aI1130
aI1288
aI-862
aI-3074
aI498
aI-75
aI-408
aI-852
aI1040
aI-574
aI-1806
aI543
aI-61
aI838
aI-1459
aI670
aI-507
aI-1777
aI-232
aI-618
aI391
aI1315
aI1541
aI-1319
aI645
aI-1971
aI500
aI-744
aI-551
aI-2577
aI-1310
aI775
aI-1156
aI617
aI556
aI1280
aI287
aI993
aI-1015
aI2043
aI-18
aI-575
aI-240
aI0
aI-178
aI-1298
aI268
aI1697
aI-248
aI-772
aI493
aI786
aI1106
aI-29
aI195
aI-149
aI-43
aI716
aI487
aI-150
aI-109
aI126
aI-14
aI1
aa(lp38
I1501
aI3305
aI-1487
aI480
aI335
aI-751
aI888
aI-116
aI-1029
aI-293
aI-1143
aI-477
aI350
aI397
aI1745
aI184
aI1889
aI831
aI1543
aI-2485
aI1422
aI-1330
aI-2037
aI-1228
aI547
aI1042
aI1537
aI957
aI26
aI-1275
aI-2003
aI-1212
aI136
aI-264
aI-776
aI977
aI1508
aI-1573
aI-2904
aI-722
aI-2573
aI824
aI-2857
aI543
aI888
aI-2064
aI-1957
aI146
aI-1781
aI367
aI-1286
aI-38
aI-806
aI-1447
aI2380
aI51
aI1462
aI357
aI1340
aI-255
aI789
aI-1405
aI203
aI1159
aI134
aI279
aI747
aI-66
aI-365
aI2605
aI-691
aI-2233
aI112
aI-1926
aI-814
aI-1479
aI1465
aI828
aI-102
aI-2021
aI1753
aI-1254
aI814
aI1371
aI-483
aI729
aI-2086
aI1987
aI773
aI-806
aI1638
aI-379
aI-149
aI-206
aI1379
aI137
aI218
aI1307
aI286
aI1098
aI-30
aI100
aI2104
aI-331
aI344
aI-667
aI26
aI140
aI-263
aI-319
aI-1197
aI1612
aI-461
aI424
aI709
aI190
aI103
aI-183
aI7
aI0
aa(lp39
I-2036
aI1591
aI-2068
aI335
aI-822
aI-440
aI-18
aI-1493
aI-57
aI554
aI-1074
aI-343
aI-1358
aI744
aI2107
aI506
aI1041
aI1196
aI-126
aI203
aI-1447
aI-1755
aI-715
aI-722
aI1240
aI2801
aI201
aI-521
aI1494
aI-2637
aI-215
aI-2960
aI-659
aI-643
aI-347
aI519
aI555
aI592
aI-1436
aI-523
aI-837
aI1526
aI605
aI1000
aI956
aI-569
aI-1306
aI-1864
aI-1908
aI-360
aI-204
aI-633
aI319
aI173
aI1125
aI164
aI1516
aI900
aI1339
aI701
aI-404
aI743
aI1955
aI1356
aI-364
aI220
aI-1174
aI-113
aI-1164
aI223
aI-1234
aI-187
aI-1831
aI1127
aI-129
aI-572
aI3419
aI-11
aI-2865
aI442
aI1418
aI629
aI419
aI1593
aI1282
aI163
aI-806
aI-653
aI-393
aI-1521
aI-316
aI1047
aI558
aI488
aI1797
aI279
aI-569
aI-597
aI772
aI1603
aI-568
aI325
aI223
aI1192
aI99
aI-125
aI3182
aI250
aI-1001
aI1162
aI-2000
aI1630
aI-631
aI152
aI-750
aI595
aI137
aI-44
aI21
aI-2
aa(lp40
I1272
aI-308
aI744
aI-1476
aI1184
aI-483
aI1184
aI-483
aI-1245
aI-592
aI1579
aI308
aI228
aI276
aI-113
aI553
aI443
aI-1119
aI1019
aI-639
aI351
aI1174
aI750
aI-819
aI43
aI-952
aI468
aI336
aI1010
aI2039
aI-3621
aI2399
aI1172
aI572
aI-1199
aI-30
aI-1088
aI-1024
aI-3226
aI251
aI-430
aI-349
aI-1010
aI-19
aI-1222
aI-681
aI-1926
aI-1575
aI3512
aI1623
aI109
aI-597
aI-2211
aI-269
aI361
aI399
aI-923
aI2195
aI70
aI-781
aI716
aI-1214
aI-584
aI-311
aI78
aI-809
aI-245
aI-1764
aI2107
aI274
aI-659
aI196
aI1465
aI-1254
aI-567
aI446
aI-471
aI-423
aI1874
aI-884
aI424
aI-726
aI-1403
aI-400
aI-494
aI282
aI56
aI427
aI-1
aI-629
aI304
aI-409
aI410
aI-686
aI1241
aI653
aI1862
aI2450
aI-586
aI-636
aI-2299
aI826
aI1778
aI-1200
aI510
aI-1079
aI-1325
aI137
aI539
aI-404
aI382
aI477
aI-167
aI405
aI227
aI298
aI205
aI-206
aI-36
aI4
aa(lp41
I755
aI784
aI87
aI-1063
aI-2374
aI431
aI911
aI-1889
aI315
aI1473
aI-1661
aI-1438
aI-457
aI443
aI-765
aI201
aI1727
aI-706
aI-223
aI750
aI460
aI1219
aI1896
aI911
aI331
aI1798
aI2606
aI1255
aI-906
aI1919
aI1234
aI-782
aI-2348
aI-1720
aI-648
aI-3052
aI949
aI-563
aI-1416
aI390
aI990
aI1629
aI-1076
aI309
aI561
aI-116
aI-1448
aI-2297
aI224
aI403
aI189
aI845
aI-906
aI-2244
aI75
aI1396
aI1330
aI773
aI-1348
aI1561
aI2235
aI1050
aI-664
aI2024
aI-737
aI-508
aI146
aI-289
aI-534
aI-599
aI-638
aI-1610
aI1525
aI601
aI1654
aI-1771
aI-75
aI547
aI-352
aI-59
aI286
aI-1316
aI234
aI658
aI-1995
aI1174
aI882
aI1397
aI492
aI2630
aI2166
aI1164
aI492
aI-80
aI-1175
aI1305
aI8
aI-630
aI484
aI-342
aI-385
aI840
aI1899
aI1191
aI1308
aI-1087
aI1999
aI126
aI-366
aI946
aI-640
aI441
aI-509
aI566
aI362
aI139
aI-11
aI246
aI1
aI0
aa(lp42
I-1415
aI-231
aI-64
aI-967
aI-1783
aI477
aI-2205
aI-520
aI1120
aI-75
aI1278
aI21
aI48
aI-74
aI1770
aI1340
aI-168
aI-2143
aI-197
aI713
aI1413
aI-2096
aI-459
aI1136
aI-285
aI-873
aI293
aI-1250
aI1366
aI-2076
aI-1009
aI-525
aI1499
aI-2283
aI154
aI1821
aI394
aI591
aI-410
aI-1812
aI-3254
aI-1264
aI225
aI-333
aI246
aI-502
aI-1634
aI-88
aI72
aI106
aI-306
aI-596
aI1038
aI-814
aI-1101
aI-58
aI1765
aI-991
aI152
aI-1483
aI-2519
aI-12
aI1301
aI409
aI-668
aI519
aI-1102
aI1432
aI-1354
aI-282
aI672
aI-212
aI-1237
aI-1688
aI462
aI733
aI1326
aI-214
aI-655
aI-1452
aI1829
aI-2927
aI-689
aI557
aI751
aI-1944
aI210
aI-735
aI-171
aI-1212
aI-1252
aI929
aI-971
aI814
aI558
aI80
aI501
aI286
aI-606
aI954
aI-1371
aI-906
aI169
aI1533
aI-1579
aI-609
aI-965
aI689
aI-622
aI811
aI435
aI184
aI-791
aI-254
aI-648
aI388
aI-122
aI68
aI-6
aI0
aa(lp43
I2740
aI257
aI-972
aI-72
aI734
aI-1166
aI802
aI599
aI-1510
aI-1035
aI1417
aI-2708
aI301
aI682
aI-2550
aI80
aI725
aI-1311
aI656
aI427
aI1747
aI814
aI2025
aI1414
aI-465
aI446
aI-970
aI-364
aI2966
aI307
aI39
aI1657
aI1299
aI-827
aI60
aI-404
aI-297
aI999
aI399
aI925
aI-391
aI-850
aI1822
aI-133
aI129
aI-522
aI-408
aI445
aI715
aI-485
aI216
aI-322
aI1998
aI-516
aI500
aI1568
aI1480
aI334
aI-1117
aI3440
aI371
aI-751
aI382
aI-319
aI-221
aI945
aI1945
aI-664
aI937
aI-1298
aI704
aI-149
aI1023
aI1255
aI1109
aI-558
aI-1276
aI3256
aI-1410
aI115
aI565
aI-575
aI-1199
aI-380
aI1703
aI956
aI-1009
aI1284
aI439
aI2067
aI-734
aI921
aI-1109
aI588
aI1213
aI1701
aI970
aI-1416
aI-185
aI51
aI340
aI-409
aI-1075
aI640
aI-763
aI-130
aI1649
aI684
aI749
aI-256
aI692
aI-506
aI86
aI438
aI358
aI-316
aI-207
aI-8
aI-22
aI2
aa(lp44
I-309
aI-574
aI770
aI-1726
aI-777
aI671
aI-73
aI-786
aI140
aI-1510
aI-579
aI142
aI-1051
aI553
aI2298
aI534
aI193
aI1186
aI539
aI1482
aI-2310
aI-1318
aI-1186
aI974
aI1251
aI-66
aI233
aI-1350
aI17
aI-1107
aI330
aI-1785
aI-473
aI-1581
aI-305
aI1284
aI1323
aI-198
aI-1558
aI-773
aI1264
aI-2028
aI1165
aI1217
aI1424
aI-1139
aI228
aI-572
aI1888
aI-397
aI430
aI-1553
aI-1613
aI317
aI266
aI-911
aI-739
aI803
aI562
aI-867
aI-179
aI-940
aI-399
aI-731
aI-2572
aI-14
aI-1085
aI1255
aI622
aI920
aI210
aI754
aI108
aI60
aI-1059
aI-587
aI30
aI-1205
aI318
aI-734
aI227
aI-6
aI1052
aI223
aI466
aI394
aI110
aI-1811
aI-51
aI-1931
aI419
aI-717
aI-706
aI311
aI199
aI284
aI-908
aI590
aI-74
aI-356
aI-242
aI-1058
aI301
aI320
aI144
aI-523
aI-493
aI-559
aI-428
aI300
aI-41
aI22
aI89
aI275
aI14
aI-107
aI82
aI201
aI9
aI-1
aa(lp45
I-162
aI1359
aI-1205
aI1600
aI-820
aI-429
aI392
aI862
aI-29
aI1990
aI-1042
aI265
aI-84
aI2817
aI552
aI919
aI1030
aI1805
aI2133
aI719
aI-955
aI-1572
aI-1662
aI-1159
aI373
aI990
aI268
aI302
aI-362
aI523
aI220
aI-813
aI-810
aI-161
aI-235
aI1074
aI920
aI-195
aI-365
aI-745
aI-995
aI2494
aI-1292
aI317
aI990
aI650
aI-725
aI-1357
aI-97
aI-1478
aI518
aI-1924
aI-1174
aI1430
aI2140
aI-584
aI1169
aI-1408
aI923
aI-1341
aI1214
aI687
aI-392
aI-194
aI-493
aI-657
aI886
aI1351
aI-845
aI893
aI-2708
aI-1741
aI89
aI-165
aI-29
aI-1540
aI-1008
aI-2100
aI505
aI769
aI1691
aI303
aI-1715
aI1348
aI-454
aI253
aI678
aI-1124
aI646
aI-206
aI1770
aI-245
aI-1591
aI2902
aI-1263
aI-1355
aI-900
aI980
aI-1240
aI-104
aI307
aI-281
aI-553
aI-805
aI114
aI-1093
aI1987
aI-164
aI-1191
aI762
aI-1612
aI648
aI-666
aI133
aI201
aI896
aI-83
aI17
aI8
aI-1
aa(lp46
I1278
aI-652
aI798
aI149
aI1149
aI-1130
aI-46
aI70
aI-1176
aI90
aI-918
aI-1112
aI265
aI-838
aI-967
aI-1867
aI-1045
aI-45
aI-280
aI-925
aI1320
aI919
aI823
aI-480
aI313
aI-412
aI246
aI-116
aI572
aI1336
aI-1211
aI1563
aI585
aI1482
aI-629
aI-1489
aI-1441
aI-2552
aI1178
aI-423
aI-805
aI-1521
aI-1516
aI-1378
aI-1201
aI326
aI1861
aI-51
aI1201
aI263
aI1207
aI1671
aI-1025
aI618
aI-1465
aI-7
aI-540
aI-969
aI1208
aI587
aI-27
aI-218
aI601
aI533
aI1317
aI-812
aI339
aI-985
aI286
aI271
aI-266
aI-10
aI-1948
aI1399
aI-1606
aI-98
aI584
aI687
aI700
aI-1057
aI441
aI-57
aI79
aI527
aI-344
aI-351
aI1059
aI2012
aI467
aI1404
aI-2207
aI313
aI2928
aI-440
aI1277
aI-64
aI760
aI890
aI-446
aI1226
aI-147
aI916
aI1149
aI-776
aI-715
aI656
aI-244
aI-18
aI-918
aI-105
aI-167
aI646
aI32
aI-1308
aI332
aI507
aI-127
aI-259
aI-11
aI1
aa(lp47
I184
aI301
aI185
aI470
aI2026
aI764
aI312
aI734
aI-376
aI-1538
aI-243
aI983
aI531
aI-252
aI205
aI1509
aI-282
aI541
aI545
aI-352
aI-1397
aI-528
aI-1823
aI560
aI-1277
aI-1459
aI-488
aI-1289
aI-1706
aI10
aI-1800
aI1523
aI1194
aI-875
aI603
aI1332
aI-560
aI1095
aI-2597
aI-16
aI-26
aI406
aI3072
aI-888
aI1241
aI415
aI-3019
aI-200
aI548
aI-1516
aI188
aI-1134
aI2168
aI767
aI-294
aI-117
aI723
aI-405
aI728
aI-925
aI-801
aI1187
aI-342
aI524
aI450
aI44
aI-296
aI172
aI725
aI398
aI-430
aI1168
aI641
aI-289
aI-880
aI-617
aI-561
aI-2429
aI-2553
aI-133
aI538
aI161
aI-505
aI-168
aI3009
aI1162
aI-1630
aI-333
aI-89
aI-1397
aI1225
aI325
aI-786
aI1136
aI1040
aI224
aI-9
aI-402
aI-1083
aI-953
aI304
aI-386
aI906
aI257
aI313
aI-553
aI119
aI340
aI401
aI-1353
aI-907
aI114
aI-648
aI220
aI-245
aI-517
aI-2
aI49
aI3
aI0
aa(lp48
I1392
aI2060
aI-718
aI1179
aI877
aI-2592
aI3067
aI704
aI-970
aI-1054
aI313
aI993
aI2219
aI420
aI-2227
aI53
aI180
aI-335
aI1799
aI-1214
aI2719
aI-221
aI-3090
aI-470
aI183
aI-1267
aI1454
aI-373
aI-411
aI-2483
aI-2785
aI-364
aI1074
aI29
aI2057
aI1516
aI1089
aI896
aI704
aI456
aI-2635
aI840
aI-817
aI-164
aI1306
aI-1058
aI-2732
aI-672
aI-2542
aI-2263
aI-1131
aI-933
aI-476
aI530
aI-108
aI-1511
aI1779
aI-109
aI-21
aI1757
aI-405
aI-1228
aI1534
aI663
aI1676
aI1261
aI1937
aI285
aI-1686
aI1194
aI-1073
aI-3358
aI565
aI-3018
aI-1298
aI1597
aI-551
aI1563
aI24
aI-753
aI2118
aI-1560
aI-272
aI695
aI-133
aI-1448
aI-1520
aI974
aI-253
aI1020
aI-1328
aI667
aI-768
aI-1155
aI1417
aI-161
aI151
aI-1560
aI-508
aI-479
aI-413
aI-218
aI-1195
aI719
aI-513
aI217
aI645
aI-13
aI146
aI-984
aI-791
aI1619
aI-337
aI729
aI822
aI150
aI-309
aI-543
aI-25
aI2
aa(lp49
I1562
aI-1327
aI1158
aI-279
aI208
aI-854
aI1132
aI-972
aI-364
aI-840
aI-991
aI-1156
aI-277
aI-835
aI-369
aI-1693
aI-962
aI1080
aI-917
aI65
aI507
aI2318
aI1027
aI707
aI329
aI343
aI-267
aI-986
aI1316
aI-43
aI141
aI-1312
aI-322
aI460
aI-755
aI-1408
aI-181
aI-787
aI856
aI119
aI581
aI-1829
aI-337
aI1020
aI17
aI784
aI1276
aI-33
aI1491
aI38
aI415
aI-174
aI-380
aI61
aI-974
aI772
aI-1494
aI532
aI784
aI2061
aI710
aI-1456
aI-1279
aI-270
aI154
aI1241
aI-1606
aI-332
aI2611
aI74
aI125
aI-868
aI-271
aI1411
aI-1375
aI-1296
aI566
aI1659
aI773
aI939
aI-589
aI162
aI301
aI27
aI-227
aI531
aI-417
aI-135
aI-401
aI630
aI-517
aI951
aI513
aI-533
aI179
aI937
aI1069
aI-106
aI33
aI535
aI117
aI-1183
aI340
aI439
aI414
aI1195
aI124
aI-56
aI-656
aI-455
aI565
aI223
aI251
aI-144
aI683
aI-742
aI-56
aI6
aI4
aI0
aa(lp50
I1976
aI24
aI872
aI1761
aI113
aI3
aI715
aI659
aI581
aI-1502
aI-854
aI541
aI164
aI2462
aI-3230
aI1177
aI748
aI-1126
aI1559
aI-258
aI-395
aI773
aI403
aI58
aI-908
aI88
aI-149
aI-568
aI1238
aI-50
aI-525
aI1577
aI502
aI-449
aI173
aI4
aI-986
aI1461
aI-1105
aI-577
aI679
aI794
aI1066
aI549
aI1509
aI904
aI515
aI1897
aI490
aI-2099
aI2273
aI-716
aI1377
aI-75
aI1753
aI85
aI33
aI592
aI832
aI-810
aI506
aI-1076
aI-2756
aI-122
aI1014
aI-1040
aI-644
aI51
aI2185
aI2364
aI-343
aI-264
aI808
aI731
aI718
aI-1537
aI-2166
aI271
aI481
aI-196
aI1230
aI-717
aI-1363
aI785
aI-82
aI531
aI2
aI357
aI-891
aI905
aI406
aI28
aI-1316
aI967
aI-254
aI-1138
aI726
aI634
aI-182
aI166
aI734
aI-765
aI-67
aI77
aI-449
aI-1253
aI-340
aI-275
aI2519
aI443
aI796
aI304
aI101
aI1766
aI116
aI85
aI67
aI-146
aI-37
aI3
aa(lp51
I-1425
aI823
aI-2398
aI1463
aI290
aI-258
aI-700
aI-128
aI-68
aI-678
aI-185
aI2259
aI-121
aI-160
aI1764
aI896
aI-436
aI1525
aI504
aI-2400
aI-967
aI-1680
aI-2047
aI-413
aI-815
aI0
aI-2432
aI1102
aI661
aI-2306
aI-374
aI910
aI1147
aI282
aI-412
aI1683
aI1456
aI-716
aI734
aI-1657
aI-941
aI-432
aI-83
aI346
aI823
aI1153
aI428
aI1204
aI-1913
aI-881
aI1216
aI-1419
aI-315
aI350
aI728
aI-698
aI136
aI944
aI1144
aI-1098
aI-457
aI342
aI731
aI-1022
aI513
aI-600
aI-280
aI548
aI-249
aI2213
aI-279
aI1530
aI-53
aI-820
aI444
aI758
aI1174
aI-1128
aI-112
aI430
aI-1238
aI374
aI-496
aI-8
aI1472
aI-1165
aI-323
aI1175
aI-921
aI-1183
aI-340
aI-1243
aI-378
aI-253
aI2347
aI-270
aI675
aI629
aI18
aI217
aI1500
aI-601
aI275
aI642
aI-175
aI-441
aI-486
aI-42
aI1783
aI-1
aI-765
aI-664
aI64
aI449
aI-365
aI-6
aI-46
aI-8
aI1
aI-1
aa(lp52
I1014
aI-953
aI-578
aI-280
aI-476
aI-636
aI68
aI103
aI-725
aI-821
aI-99
aI-1109
aI649
aI-716
aI586
aI-419
aI496
aI1108
aI-734
aI-121
aI36
aI-1015
aI794
aI362
aI-1011
aI1281
aI-1267
aI-2555
aI1454
aI2963
aI1594
aI1028
aI1053
aI1474
aI691
aI-1213
aI-1625
aI-2002
aI773
aI108
aI1152
aI722
aI185
aI-1577
aI-2986
aI1758
aI2024
aI1466
aI233
aI-824
aI2559
aI-960
aI363
aI2377
aI1774
aI-1394
aI25
aI-740
aI543
aI-1550
aI-169
aI1892
aI-1977
aI-1531
aI-298
aI145
aI341
aI-22
aI634
aI-900
aI-847
aI349
aI-513
aI-796
aI-1310
aI1472
aI-172
aI34
aI-1091
aI1855
aI-2132
aI2854
aI-253
aI831
aI2295
aI1339
aI-1013
aI-1095
aI933
aI-2276
aI292
aI-598
aI149
aI1256
aI370
aI-1454
aI-946
aI873
aI-224
aI1488
aI-1276
aI136
aI451
aI-883
aI1251
aI1944
aI-209
aI-91
aI295
aI1292
aI1356
aI-2150
aI1308
aI372
aI-206
aI-523
aI75
aI279
aI40
aI-4
aa(lp53
I-148
aI1784
aI-2003
aI272
aI-719
aI-360
aI1844
aI-323
aI526
aI317
aI-1896
aI-276
aI-445
aI2489
aI-958
aI344
aI808
aI-897
aI826
aI792
aI-686
aI326
aI-1678
aI-240
aI-1209
aI991
aI1846
aI496
aI148
aI-782
aI-717
aI-627
aI-50
aI549
aI2080
aI798
aI-425
aI2573
aI-4102
aI-274
aI-241
aI2051
aI1815
aI-102
aI-58
aI2029
aI-1427
aI-582
aI-443
aI-565
aI1309
aI-1500
aI1102
aI619
aI3150
aI-973
aI2393
aI237
aI1663
aI-1558
aI-459
aI-1508
aI306
aI1111
aI-75
aI-1656
aI-603
aI50
aI-283
aI1847
aI-2821
aI-1063
aI157
aI-81
aI-722
aI-1063
aI-328
aI-2236
aI-927
aI686
aI1833
aI-145
aI-1254
aI-371
aI1015
aI-1162
aI-587
aI-49
aI-898
aI-1486
aI-149
aI-555
aI-1034
aI2313
aI-14
aI-112
aI3
aI-439
aI-74
aI-351
aI-590
aI-309
aI-572
aI168
aI1454
aI-866
aI1699
aI-237
aI-552
aI46
aI-313
aI180
aI-1421
aI798
aI-42
aI929
aI92
aI-49
aI-12
aI1
aa(lp54
I1450
aI-1865
aI-109
aI-97
aI946
aI889
aI342
aI92
aI-1944
aI-751
aI-2088
aI-172
aI394
aI1289
aI-1776
aI-232
aI1686
aI596
aI-814
aI-892
aI213
aI2612
aI2154
aI1376
aI-575
aI-818
aI-302
aI812
aI-220
aI-486
aI-231
aI4
aI606
aI162
aI98
aI531
aI-1258
aI437
aI-1565
aI-1788
aI195
aI1600
aI1200
aI-422
aI-1227
aI1093
aI521
aI-2719
aI1574
aI630
aI-720
aI-1066
aI1008
aI-513
aI850
aI2572
aI-1164
aI1859
aI-328
aI-1295
aI-274
aI-958
aI-2888
aI843
aI133
aI-1149
aI-1033
aI-867
aI1951
aI72
aI-616
aI-250
aI-736
aI2511
aI-555
aI212
aI-838
aI-724
aI1903
aI2451
aI-497
aI1648
aI245
aI-967
aI1389
aI444
aI-509
aI2845
aI965
aI-257
aI744
aI1916
aI41
aI-571
aI168
aI2303
aI1154
aI-1259
aI-1948
aI-272
aI-684
aI-1618
aI-1782
aI792
aI-374
aI959
aI-677
aI-10
aI1275
aI68
aI917
aI-1498
aI667
aI76
aI-150
aI-732
aI167
aI-56
aI14
aI-1
aa(lp55
I6
aI-22
aI-1212
aI1353
aI2578
aI-157
aI-1783
aI1160
aI-427
aI-51
aI-256
aI694
aI1470
aI-694
aI-1685
aI-663
aI12
aI1557
aI478
aI-1281
aI-554
aI-685
aI693
aI-1939
aI-754
aI527
aI-526
aI1894
aI-1573
aI-78
aI882
aI798
aI-1521
aI-122
aI-1211
aI-1082
aI352
aI175
aI1640
aI-458
aI-996
aI2151
aI-1579
aI-255
aI-1177
aI-1202
aI-921
aI1006
aI-1967
aI-910
aI-583
aI-294
aI-581
aI88
aI-326
aI1984
aI-279
aI-1026
aI-789
aI1116
aI80
aI3298
aI1007
aI1134
aI2159
aI-522
aI1267
aI-886
aI-277
aI-1438
aI637
aI1103
aI-268
aI-170
aI2538
aI192
aI-1371
aI-355
aI-740
aI717
aI-1282
aI1973
aI-394
aI63
aI-1028
aI1912
aI696
aI2170
aI-997
aI2618
aI671
aI431
aI211
aI-2531
aI371
aI551
aI-545
aI-62
aI-594
aI-776
aI484
aI2419
aI-907
aI-323
aI-446
aI-648
aI1891
aI-768
aI316
aI207
aI-1376
aI762
aI334
aI-507
aI-631
aI-262
aI-304
aI18
aI-9
aI1
aa(lp56
I420
aI40
aI-1781
aI-570
aI1853
aI-1580
aI716
aI-409
aI299
aI-238
aI330
aI-146
aI115
aI2185
aI-3225
aI-473
aI-661
aI-1920
aI-116
aI1407
aI899
aI-60
aI-924
aI-283
aI-770
aI58
aI-598
aI1071
aI823
aI-29
aI-1368
aI1073
aI-811
aI470
aI-573
aI-158
aI-1316
aI642
aI103
aI325
aI-938
aI-1274
aI1269
aI-68
aI929
aI-1195
aI-1348
aI-158
aI-584
aI-201
aI-165
aI2135
aI-1139
aI-1761
aI-544
aI-702
aI647
aI-212
aI-317
aI939
aI37
aI624
aI353
aI1661
aI1260
aI-418
aI644
aI-1059
aI137
aI-2415
aI837
aI1340
aI-641
aI1015
aI278
aI-346
aI-795
aI737
aI404
aI-1226
aI-1462
aI1282
aI862
aI-643
aI-733
aI-77
aI1174
aI-402
aI-1103
aI906
aI-3542
aI-374
aI725
aI-2429
aI753
aI2758
aI250
aI-2076
aI115
aI213
aI683
aI418
aI-1246
aI-959
aI-613
aI1904
aI-1092
aI-269
aI-13
aI-820
aI1389
aI518
aI897
aI-1127
aI-352
aI-325
aI-218
aI68
aI-5
aI0
aa(lp57
I1617
aI-1541
aI-1772
aI-2092
aI3459
aI-1463
aI-60
aI-1213
aI-293
aI-386
aI-176
aI625
aI-690
aI682
aI-664
aI-107
aI-1511
aI1468
aI-168
aI-77
aI-125
aI-1747
aI-1027
aI528
aI-13
aI-455
aI-1468
aI727
aI1964
aI330
aI-1079
aI2448
aI-199
aI560
aI-1040
aI910
aI946
aI-343
aI-129
aI-685
aI-1398
aI-1420
aI-310
aI636
aI17
aI-565
aI468
aI2890
aI-38
aI38
aI366
aI1103
aI-710
aI-508
aI1479
aI-374
aI-822
aI-262
aI616
aI158
aI-1874
aI-1300
aI445
aI44
aI2530
aI-3449
aI-1299
aI-914
aI1271
aI77
aI1281
aI2477
aI-1204
aI405
aI810
aI-781
aI-1919
aI1626
aI1233
aI-1839
aI-473
aI475
aI-1199
aI-684
aI472
aI-690
aI1118
aI94
aI-927
aI499
aI-1477
aI186
aI1074
aI-2112
aI631
aI1011
aI1034
aI2029
aI507
aI-1242
aI552
aI1334
aI-141
aI-486
aI133
aI355
aI-1722
aI-81
aI264
aI-1517
aI450
aI180
aI-542
aI-718
aI375
aI266
aI-286
aI-60
aI-1
aI0
aa(lp58
I733
aI1150
aI-1954
aI-647
aI-1336
aI285
aI184
aI-1645
aI2353
aI518
aI-223
aI527
aI357
aI1747
aI-412
aI-139
aI374
aI-691
aI-528
aI1251
aI648
aI1280
aI-833
aI517
aI-166
aI433
aI1464
aI1635
aI-1785
aI793
aI-1589
aI-2273
aI-1355
aI-632
aI-986
aI460
aI900
aI-1566
aI1257
aI-343
aI1058
aI135
aI-163
aI303
aI1519
aI1106
aI179
aI-1301
aI-1304
aI-443
aI-1332
aI775
aI69
aI-2361
aI267
aI-1781
aI1920
aI-1511
aI33
aI-808
aI638
aI676
aI62
aI730
aI1059
aI-1605
aI-63
aI-396
aI-1137
aI101
aI-2140
aI-597
aI-24
aI-1397
aI189
aI-933
aI455
aI271
aI2459
aI-256
aI181
aI-613
aI1304
aI-217
aI-899
aI-1491
aI289
aI683
aI-1449
aI551
aI-485
aI688
aI942
aI-1925
aI-1389
aI1548
aI-660
aI-1774
aI1688
aI-1353
aI2415
aI41
aI-617
aI173
aI782
aI-724
aI612
aI297
aI946
aI-507
aI-1333
aI-110
aI-92
aI-124
aI84
aI282
aI-166
aI395
aI16
aI-2
aa(lp59
I1813
aI1473
aI155
aI2374
aI2346
aI-1144
aI-90
aI748
aI-289
aI-2005
aI-988
aI-350
aI-247
aI1273
aI-1778
aI606
aI517
aI52
aI2412
aI-297
aI-582
aI1337
aI-68
aI-894
aI-1024
aI921
aI-725
aI-517
aI1263
aI1463
aI-1396
aI1508
aI697
aI146
aI216
aI-353
aI-1710
aI567
aI-1420
aI-802
aI-122
aI1002
aI1455
aI-1118
aI611
aI492
aI-2604
aI-830
aI1001
aI-601
aI479
aI-115
aI1722
aI247
aI1725
aI1248
aI79
aI2265
aI-522
aI-337
aI1373
aI-340
aI-1775
aI525
aI2311
aI436
aI-2022
aI-2105
aI1904
aI1271
aI33
aI470
aI537
aI203
aI-1024
aI-1471
aI137
aI-367
aI-1225
aI1142
aI-297
aI-433
aI557
aI1235
aI803
aI-422
aI-1401
aI408
aI-1234
aI-113
aI-174
aI877
aI-1337
aI-53
aI2173
aI-436
aI2581
aI-2322
aI-1814
aI423
aI-243
aI-600
aI792
aI-200
aI-421
aI38
aI446
aI567
aI1902
aI-190
aI-455
aI677
aI33
aI567
aI-311
aI-198
aI39
aI-347
aI1
aI0
aa(lp60
I-2575
aI762
aI459
aI1419
aI-313
aI417
aI-307
aI1437
aI-2431
aI-858
aI2395
aI-370
aI-49
aI2203
aI-448
aI1730
aI795
aI506
aI1752
aI-1367
aI-2459
aI480
aI-479
aI-1538
aI888
aI-1332
aI-1877
aI-1670
aI2464
aI-2161
aI-918
aI1047
aI1405
aI36
aI-367
aI1039
aI10
aI1473
aI151
aI-91
aI-409
aI-143
aI-393
aI-113
aI170
aI-726
aI-497
aI-572
aI54
aI-49
aI-1015
aI-4510
aI282
aI-508
aI21
aI92
aI-249
aI877
aI-83
aI585
aI1072
aI-324
aI-970
aI-2688
aI-618
aI2975
aI-783
aI1422
aI596
aI1324
aI707
aI215
aI1530
aI741
aI-37
aI-305
aI907
aI-268
aI209
aI1323
aI-1706
aI-429
aI-433
aI3
aI872
aI-1216
aI-1137
aI-1183
aI-1457
aI-622
aI-1257
aI-293
aI-1664
aI1331
aI1874
aI-1782
aI1932
aI392
aI-1993
aI2066
aI-59
aI-1189
aI-37
aI1206
aI-3172
aI-2066
aI750
aI222
aI1632
aI387
aI-285
aI-280
aI450
aI802
aI340
aI-126
aI30
aI-227
aI8
aI-1
aa(lp61
I1144
aI-809
aI-253
aI1300
aI-1757
aI31
aI-202
aI1582
aI1470
aI110
aI110
aI-1944
aI-426
aI679
aI-2472
aI456
aI-250
aI-1185
aI182
aI103
aI323
aI1597
aI2920
aI1381
aI-1322
aI-1009
aI-184
aI-396
aI-731
aI1804
aI-338
aI-64
aI-634
aI728
aI666
aI-1260
aI-720
aI-858
aI1601
aI1414
aI1152
aI-5
aI979
aI-1184
aI322
aI979
aI1878
aI-225
aI-310
aI41
aI1250
aI-353
aI771
aI-543
aI-582
aI654
aI956
aI-441
aI-1158
aI1358
aI1051
aI876
aI-1180
aI396
aI267
aI946
aI1607
aI-230
aI1859
aI-2139
aI-823
aI-2470
aI1594
aI1847
aI554
aI-1518
aI-2322
aI342
aI1198
aI408
aI-449
aI1508
aI-110
aI-653
aI-395
aI418
aI1018
aI-461
aI-450
aI1525
aI1589
aI-844
aI-1225
aI41
aI-1263
aI-1981
aI1120
aI-483
aI-1115
aI-1048
aI933
aI-580
aI442
aI-1198
aI508
aI265
aI-1096
aI-627
aI-227
aI642
aI984
aI-1050
aI-25
aI439
aI-171
aI1
aI78
aI225
aI10
aI-1
aa(lp62
I-1583
aI109
aI244
aI616
aI-698
aI489
aI206
aI721
aI-188
aI308
aI701
aI2517
aI116
aI-1791
aI304
aI1280
aI-830
aI-1086
aI-471
aI-422
aI1179
aI-432
aI-1054
aI-18
aI678
aI-665
aI431
aI104
aI-3370
aI-1405
aI-734
aI652
aI827
aI683
aI1277
aI405
aI-248
aI-790
aI2173
aI706
aI-402
aI-742
aI-1714
aI-572
aI489
aI26
aI-758
aI373
aI-1177
aI-1385
aI-210
aI519
aI-889
aI884
aI-1624
aI188
aI-621
aI-1136
aI259
aI-186
aI-785
aI509
aI591
aI-643
aI1443
aI-511
aI652
aI280
aI-1623
aI292
aI-711
aI-574
aI674
aI-1075
aI-676
aI2495
aI808
aI-241
aI-678
aI211
aI-1058
aI-1466
aI-495
aI-361
aI-1098
aI1033
aI420
aI602
aI-450
aI-13
aI1341
aI50
aI1403
aI-636
aI646
aI-3037
aI147
aI212
aI261
aI129
aI-295
aI484
aI1343
aI-225
aI503
aI-785
aI200
aI-100
aI-238
aI221
aI-703
aI640
aI-248
aI462
aI254
aI135
aI346
aI116
aI20
aI1
aa(lp63
I954
aI1032
aI-849
aI1444
aI-249
aI-810
aI-180
aI711
aI-1761
aI581
aI-895
aI-3248
aI-257
aI2829
aI587
aI-2
aI2377
aI1845
aI10
aI344
aI-1485
aI-1917
aI-289
aI-878
aI26
aI959
aI1399
aI-493
aI1740
aI-2731
aI1057
aI-1894
aI-2204
aI-408
aI-627
aI127
aI-389
aI1073
aI-1574
aI-59
aI-881
aI2917
aI1226
aI-1766
aI-358
aI-1300
aI-1028
aI-2186
aI-316
aI1667
aI133
aI-1216
aI-647
aI458
aI2470
aI-522
aI611
aI1040
aI703
aI558
aI1481
aI1509
aI-1131
aI2327
aI1342
aI-117
aI-243
aI-18
aI1246
aI-373
aI-1
aI1643
aI-2544
aI357
aI622
aI-1376
aI202
aI-307
aI-1568
aI1602
aI467
aI740
aI1701
aI754
aI282
aI533
aI-960
aI1380
aI2335
aI-1201
aI-1044
aI265
aI1356
aI-745
aI233
aI1075
aI-168
aI-518
aI181
aI399
aI478
aI-195
aI-1848
aI337
aI-1986
aI-413
aI442
aI-353
aI519
aI547
aI-1194
aI-423
aI660
aI51
aI-228
aI-521
aI-24
aI132
aI37
aI0
aa(lp64
I3106
aI-189
aI-1042
aI1672
aI569
aI-501
aI80
aI-23
aI1543
aI941
aI438
aI-704
aI671
aI-2102
aI1606
aI-1488
aI-734
aI1588
aI-1215
aI662
aI-414
aI485
aI-557
aI-582
aI-1318
aI905
aI-1576
aI-429
aI348
aI705
aI1945
aI-47
aI1337
aI940
aI221
aI-926
aI-185
aI-246
aI283
aI-130
aI-1194
aI1824
aI-769
aI2237
aI-82
aI791
aI-547
aI2488
aI-668
aI1697
aI358
aI1486
aI441
aI2434
aI-433
aI-555
aI344
aI-935
aI-732
aI462
aI-707
aI-1500
aI541
aI-1351
aI385
aI314
aI637
aI-613
aI-127
aI2307
aI380
aI382
aI-2667
aI-2556
aI1215
aI-1864
aI-1173
aI53
aI-1136
aI213
aI365
aI772
aI1945
aI1242
aI1136
aI65
aI-1552
aI-157
aI732
aI-542
aI1422
aI402
aI-38
aI-1124
aI-1724
aI-416
aI-2029
aI-1094
aI-315
aI517
aI1757
aI-891
aI152
aI-1369
aI767
aI975
aI-130
aI512
aI447
aI-621
aI143
aI-1039
aI-37
aI-629
aI-501
aI-512
aI-55
aI-162
aI70
aI-5
aa(lp65
I2871
aI-825
aI584
aI-4032
aI880
aI-251
aI589
aI-1708
aI2008
aI-2293
aI-1785
aI861
aI524
aI1926
aI-748
aI-1417
aI-137
aI-214
aI162
aI1673
aI1331
aI-1096
aI113
aI2535
aI1911
aI736
aI-530
aI905
aI780
aI1887
aI537
aI884
aI593
aI-1924
aI358
aI230
aI1192
aI-368
aI-984
aI-3371
aI1987
aI-2193
aI519
aI519
aI647
aI1001
aI-275
aI-149
aI3985
aI-2770
aI-1725
aI695
aI-135
aI-744
aI1022
aI610
aI-828
aI-489
aI-1023
aI-3243
aI-483
aI-828
aI-3357
aI-777
aI353
aI-445
aI-2607
aI277
aI213
aI2067
aI1030
aI197
aI621
aI-1948
aI-1510
aI-934
aI-2326
aI1199
aI41
aI-1338
aI368
aI-1576
aI-65
aI916
aI767
aI348
aI-152
aI-1497
aI-329
aI-541
aI-245
aI270
aI-253
aI366
aI-1935
aI1439
aI-1002
aI-761
aI-867
aI-1421
aI206
aI-205
aI57
aI1624
aI2093
aI1212
aI-558
aI714
aI872
aI-313
aI1673
aI-43
aI-154
aI495
aI322
aI-201
aI75
aI90
aI93
aI-4
aa(lp66
I293
aI1883
aI65
aI-2404
aI197
aI572
aI-1598
aI481
aI745
aI1326
aI1140
aI244
aI881
aI-1398
aI1112
aI1360
aI160
aI-532
aI-1822
aI-919
aI464
aI-1461
aI996
aI-83
aI-1253
aI-977
aI541
aI1495
aI-1736
aI2882
aI-1195
aI550
aI693
aI-469
aI841
aI-136
aI23
aI-888
aI-64
aI-338
aI-144
aI194
aI604
aI-2168
aI159
aI-163
aI784
aI1106
aI-607
aI484
aI-545
aI714
aI467
aI-508
aI-19
aI-629
aI1114
aI-1052
aI-445
aI-211
aI1050
aI595
aI599
aI193
aI-1262
aI160
aI1919
aI-2032
aI-2057
aI-1801
aI1885
aI87
aI997
aI-328
aI1304
aI2633
aI341
aI1274
aI-650
aI-1885
aI379
aI-248
aI82
aI1203
aI1442
aI-1295
aI687
aI911
aI737
aI625
aI1519
aI-451
aI1550
aI925
aI1504
aI-189
aI445
aI671
aI347
aI-2012
aI-893
aI1189
aI31
aI-1200
aI-56
aI-780
aI-74
aI781
aI154
aI320
aI-853
aI335
aI-222
aI402
aI126
aI185
aI28
aI120
aI-52
aI1
aa(lp67
I-20
aI-199
aI1782
aI-529
aI-451
aI-304
aI273
aI-667
aI-129
aI824
aI297
aI-95
aI-2233
aI2193
aI271
aI-1795
aI1246
aI865
aI2320
aI382
aI-859
aI1066
aI568
aI-1917
aI283
aI2280
aI505
aI-531
aI1520
aI2832
aI515
aI241
aI513
aI-1527
aI-429
aI-534
aI-315
aI1634
aI-1961
aI-1427
aI551
aI-442
aI783
aI-1108
aI-211
aI-1719
aI-1979
aI-2902
aI2880
aI1496
aI-1105
aI-2497
aI-1066
aI-1233
aI-309
aI-1220
aI-89
aI653
aI-469
aI-195
aI1012
aI-500
aI1613
aI449
aI99
aI1814
aI-2063
aI1868
aI-800
aI2769
aI766
aI44
aI603
aI-1123
aI-1597
aI-42
aI1916
aI775
aI350
aI-912
aI176
aI-71
aI-448
aI-1163
aI-1463
aI-1905
aI446
aI-1736
aI378
aI-1416
aI-1186
aI-9
aI983
aI238
aI-737
aI1866
aI-1227
aI736
aI-948
aI-975
aI-1012
aI226
aI1241
aI123
aI-139
aI-2294
aI1188
aI-1985
aI771
aI442
aI224
aI1089
aI327
aI911
aI612
aI-491
aI69
aI181
aI11
aI0
aa(lp68
I596
aI1168
aI-2525
aI915
aI-884
aI-411
aI-995
aI-879
aI854
aI1238
aI269
aI-459
aI2384
aI-1519
aI1757
aI27
aI162
aI1455
aI-679
aI-236
aI-125
aI-934
aI1185
aI1402
aI-609
aI561
aI-1581
aI718
aI-51
aI-343
aI904
aI-1855
aI2110
aI-58
aI-532
aI504
aI719
aI-1165
aI671
aI-81
aI-1066
aI2379
aI-1238
aI3578
aI-296
aI663
aI2476
aI1499
aI-2379
aI1511
aI-71
aI-1716
aI578
aI-243
aI501
aI-353
aI-25
aI-2744
aI1969
aI793
aI-1578
aI-1875
aI-67
aI-1035
aI-2686
aI-630
aI1299
aI-1972
aI-564
aI108
aI-2205
aI-1517
aI-1410
aI-1896
aI582
aI-2049
aI375
aI-293
aI-458
aI-317
aI1842
aI-1080
aI-1051
aI1894
aI1050
aI-425
aI-1004
aI304
aI338
aI390
aI1395
aI-833
aI122
aI-259
aI958
aI-783
aI-142
aI1173
aI1472
aI1557
aI436
aI-438
aI378
aI-1712
aI-22
aI1711
aI1791
aI313
aI-1761
aI478
aI-1032
aI253
aI-515
aI-16
aI-539
aI221
aI139
aI-70
aI30
aI1
aa(lp69
I401
aI-540
aI-269
aI2083
aI-2144
aI-205
aI243
aI1428
aI-243
aI826
aI1087
aI-1877
aI763
aI560
aI231
aI456
aI1222
aI-1786
aI272
aI-770
aI1307
aI647
aI645
aI-1547
aI-1113
aI-736
aI151
aI-1873
aI1321
aI1193
aI-74
aI-249
aI1355
aI-28
aI-298
aI-444
aI-692
aI300
aI-720
aI365
aI-1330
aI2306
aI726
aI1583
aI283
aI403
aI-81
aI-1973
aI-1501
aI2351
aI513
aI1210
aI-1444
aI-224
aI-514
aI-299
aI1920
aI-1102
aI-1225
aI859
aI-360
aI-967
aI1034
aI355
aI-1057
aI-47
aI1303
aI-244
aI-1587
aI-499
aI189
aI-284
aI-2365
aI-355
aI1413
aI-921
aI478
aI964
aI-52
aI-696
aI4071
aI923
aI2391
aI1552
aI-228
aI-1202
aI-577
aI-931
aI2307
aI389
aI-404
aI153
aI1084
aI551
aI-1820
aI685
aI-1524
aI156
aI-1562
aI1031
aI419
aI-1284
aI192
aI-1671
aI-1796
aI2110
aI-141
aI163
aI-584
aI359
aI-678
aI-569
aI298
aI-367
aI305
aI-110
aI84
aI-23
aI7
aI3
aa(lp70
I209
aI-617
aI104
aI-372
aI1643
aI366
aI-656
aI402
aI-1019
aI-528
aI-1012
aI-921
aI702
aI1019
aI-3513
aI-1282
aI814
aI472
aI-966
aI604
aI724
aI-71
aI1421
aI328
aI2355
aI-848
aI-520
aI418
aI-1833
aI-1138
aI415
aI520
aI-1109
aI685
aI398
aI-344
aI-1198
aI-425
aI2619
aI1273
aI1107
aI-1933
aI-1193
aI-1037
aI623
aI257
aI986
aI-1509
aI-248
aI-1593
aI-1242
aI1433
aI1441
aI3
aI-416
aI1175
aI-1377
aI7
aI-481
aI-271
aI828
aI1803
aI-2036
aI332
aI1726
aI17
aI1156
aI638
aI249
aI-1951
aI-816
aI-10
aI-1319
aI2753
aI-2064
aI-53
aI-250
aI1029
aI185
aI1045
aI-1706
aI414
aI455
aI-974
aI-324
aI934
aI552
aI2086
aI925
aI913
aI-1956
aI-182
aI970
aI-2096
aI137
aI579
aI-232
aI-2494
aI654
aI536
aI1313
aI1510
aI-1896
aI584
aI-46
aI-704
aI513
aI602
aI1271
aI-764
aI1224
aI-71
aI695
aI-981
aI-106
aI137
aI-125
aI-23
aI-76
aI2
aa(lp71
I-770
aI-429
aI1064
aI-2577
aI-473
aI-527
aI1258
aI-1236
aI595
aI837
aI2652
aI224
aI-1142
aI1357
aI-365
aI614
aI683
aI-1581
aI158
aI441
aI-20
aI2481
aI-129
aI-477
aI-18
aI731
aI539
aI861
aI1709
aI-360
aI-443
aI-843
aI-87
aI-1527
aI-1210
aI-556
aI-950
aI-360
aI735
aI69
aI709
aI-325
aI-2037
aI394
aI492
aI-338
aI768
aI-886
aI1199
aI119
aI-1228
aI-845
aI-261
aI-1402
aI16
aI-1109
aI-274
aI-825
aI-773
aI405
aI267
aI-1298
aI157
aI-722
aI-1061
aI1492
aI-1256
aI1246
aI-790
aI909
aI-536
aI-576
aI-469
aI-375
aI381
aI-449
aI1332
aI1352
aI2977
aI-1324
aI-617
aI-235
aI-273
aI1508
aI-974
aI52
aI-403
aI-1973
aI-2174
aI88
aI-702
aI893
aI-899
aI-619
aI-245
aI1016
aI1266
aI-142
aI1279
aI756
aI622
aI1307
aI-356
aI956
aI-1155
aI-1830
aI456
aI-88
aI395
aI245
aI571
aI517
aI549
aI50
aI247
aI-130
aI-5
aI119
aI-22
aI5
aa(lp72
I-57
aI1015
aI518
aI2057
aI711
aI484
aI166
aI1515
aI48
aI897
aI363
aI-421
aI1805
aI2201
aI-1647
aI-866
aI2864
aI1361
aI83
aI-1327
aI1066
aI210
aI1708
aI-715
aI938
aI-1117
aI-1327
aI2007
aI182
aI776
aI2066
aI1166
aI-319
aI-129
aI1460
aI276
aI798
aI-263
aI3274
aI-360
aI313
aI1629
aI-1597
aI-490
aI-2056
aI1388
aI-1166
aI-3090
aI-487
aI-420
aI-3585
aI-1766
aI859
aI-34
aI-464
aI241
aI9
aI-2461
aI-2478
aI838
aI2369
aI936
aI356
aI116
aI-484
aI2300
aI2371
aI494
aI-1474
aI464
aI-546
aI-86
aI397
aI-1398
aI-2059
aI-562
aI-2057
aI-251
aI-765
aI2246
aI-1647
aI1201
aI-246
aI478
aI-587
aI869
aI136
aI888
aI324
aI72
aI-1881
aI41
aI149
aI-1820
aI-722
aI978
aI-1614
aI-2835
aI-1662
aI-388
aI2914
aI872
aI-1333
aI57
aI-178
aI-152
aI2132
aI645
aI932
aI361
aI-1006
aI-534
aI622
aI-107
aI164
aI-494
aI144
aI3
aI26
aI-25
aa(lp73
I-165
aI-465
aI-359
aI-797
aI211
aI1297
aI-318
aI-349
aI-1449
aI-2103
aI-933
aI-649
aI-1541
aI1652
aI-1526
aI71
aI949
aI-2201
aI1731
aI554
aI2036
aI-990
aI-346
aI692
aI810
aI7
aI965
aI-2170
aI839
aI-2362
aI-2571
aI1622
aI1028
aI-144
aI737
aI-248
aI-274
aI-1312
aI-776
aI305
aI-1871
aI-3547
aI-734
aI963
aI-616
aI-384
aI279
aI590
aI-512
aI-678
aI1353
aI1845
aI-270
aI-1514
aI386
aI1902
aI1209
aI97
aI2152
aI540
aI-2795
aI-1654
aI1015
aI376
aI476
aI-1575
aI-1015
aI1363
aI-1
aI719
aI-235
aI-379
aI-1052
aI2067
aI-1594
aI673
aI-532
aI759
aI259
aI-1604
aI-112
aI-2251
aI19
aI-780
aI-1304
aI-540
aI-123
aI867
aI-566
aI-236
aI-1244
aI-362
aI-1314
aI-1464
aI1474
aI-352
aI-151
aI906
aI-585
aI1107
aI-762
aI-122
aI1048
aI955
aI583
aI-604
aI-2020
aI388
aI-1804
aI-103
aI635
aI-83
aI-615
aI-784
aI236
aI307
aI-375
aI112
aI-37
aI7
aa(lp74
I1413
aI387
aI-1102
aI871
aI1192
aI993
aI1028
aI-185
aI1063
aI1051
aI1234
aI611
aI246
aI-1087
aI873
aI-1273
aI-1196
aI1471
aI-2074
aI-2046
aI1381
aI735
aI-877
aI-300
aI-1560
aI1151
aI-2184
aI549
aI1012
aI93
aI345
aI2431
aI613
aI911
aI-971
aI-85
aI288
aI-600
aI-1261
aI-484
aI-879
aI-8
aI-1246
aI1065
aI-75
aI1092
aI-1183
aI1425
aI-1372
aI-292
aI-329
aI1483
aI-262
aI1320
aI-1808
aI-632
aI588
aI-725
aI227
aI26
aI-518
aI-2179
aI915
aI-1037
aI407
aI220
aI711
aI-1355
aI476
aI1638
aI546
aI1467
aI-1726
aI-459
aI407
aI-470
aI-844
aI135
aI-1423
aI-978
aI929
aI2494
aI-183
aI1110
aI2013
aI941
aI-1183
aI-262
aI776
aI-673
aI-647
aI35
aI1507
aI-208
aI346
aI1211
aI-419
aI982
aI753
aI1290
aI1195
aI171
aI968
aI-1335
aI1043
aI-209
aI555
aI-542
aI-46
aI-314
aI-813
aI938
aI-274
aI-769
aI-135
aI123
aI-61
aI99
aI-34
aI-1
aa(lp75
I1121
aI652
aI508
aI1535
aI-135
aI-434
aI265
aI-254
aI-1394
aI-624
aI-1501
aI-1158
aI682
aI901
aI-1291
aI15
aI1800
aI802
aI-133
aI-1104
aI1283
aI-922
aI16
aI-3
aI-798
aI-1151
aI-40
aI-143
aI-605
aI699
aI-627
aI-652
aI-255
aI1869
aI-698
aI-974
aI-65
aI-438
aI1525
aI443
aI-368
aI950
aI-693
aI740
aI-264
aI31
aI561
aI-882
aI-1976
aI-514
aI-642
aI3284
aI54
aI-1116
aI75
aI-664
aI1366
aI-1629
aI1067
aI113
aI943
aI1366
aI-552
aI1090
aI588
aI-509
aI-23
aI-1392
aI204
aI-1708
aI-930
aI3
aI-2402
aI769
aI66
aI-367
aI274
aI-31
aI199
aI-522
aI1570
aI541
aI1020
aI2011
aI219
aI2188
aI1380
aI939
aI3019
aI173
aI-644
aI152
aI1253
aI-1902
aI-1066
aI530
aI-857
aI187
aI-222
aI634
aI950
aI-769
aI-898
aI-1135
aI208
aI2086
aI468
aI181
aI-189
aI-142
aI-137
aI518
aI1030
aI-42
aI64
aI-401
aI294
aI197
aI62
aI2
aa(lp76
I-58
aI-1475
aI-84
aI-1055
aI438
aI-380
aI140
aI1076
aI642
aI-1165
aI1440
aI385
aI90
aI1031
aI-1263
aI1893
aI1145
aI-1552
aI1165
aI1010
aI-1136
aI1569
aI-725
aI-904
aI207
aI740
aI14
aI-1088
aI-2051
aI1767
aI-1331
aI-707
aI560
aI-2167
aI60
aI864
aI261
aI139
aI-336
aI1
aI104
aI427
aI658
aI-16
aI1382
aI-226
aI-995
aI-1659
aI567
aI-2747
aI-683
aI-33
aI-854
aI-899
aI487
aI1256
aI1612
aI-2686
aI-717
aI230
aI-1164
aI461
aI-119
aI478
aI636
aI-1166
aI-605
aI1596
aI-519
aI-362
aI428
aI-1894
aI623
aI659
aI302
aI-353
aI1016
aI-1102
aI706
aI-633
aI2352
aI1036
aI819
aI1316
aI76
aI-124
aI-97
aI-1222
aI-2139
aI120
aI403
aI1475
aI-2073
aI1297
aI649
aI-220
aI-1169
aI-1068
aI-468
aI400
aI-34
aI193
aI462
aI-1141
aI-1076
aI-495
aI692
aI-569
aI-273
aI13
aI-625
aI1493
aI-179
aI241
aI128
aI37
aI157
aI186
aI-53
aI-21
aa(lp77
I-163
aI145
aI-860
aI-366
aI-212
aI-1884
aI781
aI-710
aI-1412
aI-844
aI-346
aI-1492
aI-432
aI1006
aI764
aI-944
aI227
aI997
aI1609
aI976
aI-462
aI-952
aI-551
aI1441
aI1412
aI1502
aI-467
aI-305
aI2
aI514
aI600
aI-1443
aI1203
aI113
aI968
aI585
aI-802
aI850
aI1498
aI945
aI1382
aI-1010
aI409
aI-102
aI1591
aI1029
aI379
aI-1772
aI1514
aI-1637
aI-390
aI-1638
aI912
aI496
aI2812
aI604
aI-475
aI-824
aI1418
aI-204
aI332
aI-996
aI35
aI-1250
aI-325
aI-1121
aI-1715
aI1207
aI176
aI-356
aI-2411
aI-1713
aI-259
aI2589
aI-2072
aI-1199
aI2444
aI-359
aI-130
aI1478
aI434
aI-1270
aI-2263
aI-23
aI901
aI392
aI258
aI-258
aI116
aI-323
aI445
aI-410
aI-1198
aI2644
aI914
aI509
aI1214
aI-370
aI856
aI971
aI-219
aI-1080
aI-681
aI352
aI865
aI-723
aI4370
aI454
aI-495
aI-395
aI135
aI1205
aI72
aI422
aI330
aI462
aI-234
aI117
aI34
aI-5
aa(lp78
I1660
aI200
aI-693
aI-581
aI145
aI-187
aI-63
aI-648
aI-397
aI799
aI-1068
aI-2323
aI-1497
aI286
aI1791
aI1016
aI1469
aI292
aI1653
aI720
aI-1679
aI-526
aI-183
aI-1082
aI868
aI1052
aI1346
aI-1648
aI931
aI443
aI976
aI-216
aI697
aI-1632
aI-636
aI-1662
aI125
aI28
aI-545
aI430
aI-1170
aI1262
aI-1276
aI203
aI753
aI78
aI947
aI-84
aI1217
aI1567
aI1722
aI519
aI624
aI-291
aI2549
aI1722
aI518
aI1083
aI560
aI992
aI-312
aI-228
aI102
aI-57
aI105
aI-548
aI-1257
aI796
aI606
aI1868
aI86
aI1148
aI-542
aI-296
aI1319
aI-2368
aI8
aI1625
aI-498
aI6
aI-464
aI-2757
aI176
aI2587
aI-352
aI-692
aI-767
aI466
aI616
aI150
aI3328
aI-22
aI-1313
aI240
aI-314
aI-788
aI418
aI224
aI689
aI1332
aI681
aI-287
aI766
aI728
aI-444
aI-943
aI-471
aI374
aI126
aI105
aI419
aI-651
aI-3
aI766
aI762
aI-175
aI-125
aI-99
aI0
aI44
aa(lp79
I1035
aI-834
aI-95
aI772
aI-1472
aI-408
aI712
aI-595
aI-532
aI509
aI1887
aI-1420
aI-430
aI2392
aI-2232
aI-891
aI1412
aI-1422
aI1103
aI2290
aI789
aI161
aI647
aI196
aI467
aI514
aI404
aI-632
aI707
aI-1932
aI-482
aI-1553
aI1376
aI-828
aI1083
aI-690
aI-1190
aI687
aI2266
aI740
aI-1704
aI-639
aI160
aI1516
aI398
aI-1353
aI298
aI-58
aI1630
aI1014
aI-1167
aI-213
aI334
aI-457
aI113
aI-68
aI195
aI-1467
aI792
aI2150
aI-1781
aI-759
aI-944
aI457
aI-187
aI199
aI-1062
aI1164
aI-317
aI-304
aI-807
aI-1973
aI-484
aI-985
aI179
aI-384
aI-196
aI1180
aI388
aI305
aI-161
aI-3643
aI-1484
aI-96
aI-1314
aI628
aI601
aI287
aI1013
aI-1007
aI-219
aI-544
aI-1331
aI-2354
aI-764
aI-402
aI-661
aI-530
aI1082
aI328
aI-310
aI-1597
aI-1331
aI467
aI-15
aI449
aI-632
aI3
aI-1052
aI-369
aI2158
aI-524
aI527
aI-134
aI236
aI-467
aI-180
aI-11
aI-49
aI-24
aa(lp80
I-218
aI-179
aI1223
aI-527
aI-191
aI2795
aI-2151
aI871
aI1110
aI97
aI288
aI-259
aI1272
aI102
aI318
aI795
aI947
aI-722
aI603
aI-1052
aI2305
aI-941
aI2117
aI1092
aI8
aI-2038
aI-242
aI-497
aI66
aI1817
aI-1328
aI500
aI2946
aI-1013
aI1330
aI-141
aI139
aI-2426
aI2273
aI-1461
aI194
aI-833
aI-663
aI-813
aI-2045
aI1459
aI2904
aI1780
aI-97
aI-1273
aI-771
aI15
aI2577
aI-380
aI398
aI1191
aI157
aI-3602
aI702
aI-207
aI-2027
aI-2197
aI-815
aI-1128
aI-1274
aI-434
aI79
aI-252
aI-1679
aI1026
aI279
aI-1057
aI16
aI-341
aI-934
aI2730
aI-758
aI437
aI830
aI-252
aI632
aI-2354
aI-1261
aI1349
aI1245
aI-1834
aI547
aI1134
aI261
aI-264
aI-588
aI1163
aI-141
aI561
aI642
aI-1574
aI604
aI690
aI158
aI-619
aI204
aI-1277
aI-956
aI-491
aI-405
aI-531
aI-810
aI1354
aI-637
aI277
aI-486
aI-887
aI-341
aI-239
aI50
aI47
aI-100
aI-119
aI0
aI-23
aa(lp81
I-3545
aI-781
aI-6
aI-217
aI-1928
aI1975
aI-75
aI-612
aI-854
aI2014
aI-444
aI252
aI-761
aI-608
aI1706
aI1842
aI1954
aI-535
aI-524
aI-2134
aI615
aI445
aI-835
aI-521
aI330
aI-314
aI1805
aI-958
aI1691
aI-1607
aI667
aI-300
aI-185
aI316
aI-331
aI608
aI1151
aI1431
aI-1914
aI1378
aI-1699
aI4026
aI-2034
aI866
aI-1962
aI445
aI557
aI-524
aI-3357
aI2926
aI829
aI-1679
aI279
aI-1554
aI2165
aI-127
aI130
aI1592
aI286
aI-734
aI-1067
aI-2455
aI1656
aI-282
aI-2547
aI-160
aI1126
aI896
aI-1017
aI1291
aI-489
aI-465
aI876
aI-161
aI933
aI1881
aI614
aI-700
aI1630
aI110
aI110
aI1531
aI210
aI1202
aI-882
aI-1626
aI-1326
aI-1502
aI724
aI-309
aI581
aI795
aI-1335
aI1120
aI6
aI464
aI113
aI1457
aI135
aI378
aI-1395
aI-406
aI814
aI324
aI-1379
aI-607
aI-1212
aI-290
aI-47
aI191
aI-215
aI36
aI-15
aI298
aI-162
aI234
aI-178
aI-286
aI79
aI11
aa(lp82
I-443
aI-721
aI-130
aI-466
aI98
aI-747
aI-968
aI-67
aI-2145
aI-509
aI-1300
aI544
aI-1770
aI-121
aI2200
aI-250
aI1069
aI410
aI2356
aI-552
aI-190
aI-1302
aI-507
aI-1114
aI-744
aI2078
aI991
aI-1892
aI785
aI140
aI168
aI-135
aI780
aI-811
aI-824
aI1292
aI-617
aI1293
aI-4073
aI97
aI-1676
aI1069
aI555
aI330
aI-397
aI-1533
aI-311
aI-163
aI131
aI1000
aI1373
aI370
aI-804
aI-112
aI1761
aI-805
aI1070
aI1076
aI986
aI-2378
aI-1723
aI379
aI1683
aI867
aI-1379
aI-1020
aI-109
aI1309
aI-11
aI1226
aI-39
aI802
aI-610
aI53
aI-37
aI-969
aI1834
aI-1020
aI-85
aI-2490
aI3260
aI1187
aI-280
aI-1805
aI-416
aI-1102
aI-991
aI571
aI748
aI-1878
aI1274
aI56
aI-662
aI2298
aI558
aI1246
aI-1818
aI2316
aI-463
aI1363
aI-1199
aI788
aI1637
aI46
aI-150
aI-319
aI-915
aI-910
aI-438
aI-67
aI249
aI68
aI-194
aI-279
aI-160
aI384
aI14
aI13
aI7
aI4
aa(lp83
I2728
aI266
aI26
aI-1245
aI-330
aI-665
aI260
aI-778
aI3198
aI-553
aI-2118
aI-850
aI1071
aI-1811
aI88
aI-49
aI-716
aI-880
aI-369
aI671
aI2090
aI777
aI-519
aI442
aI475
aI103
aI333
aI1103
aI244
aI2305
aI-921
aI-1112
aI-915
aI-163
aI-416
aI-2063
aI-120
aI-3313
aI1583
aI-370
aI467
aI-365
aI-1354
aI-293
aI1206
aI1106
aI1776
aI-600
aI-682
aI-72
aI337
aI2382
aI151
aI-16
aI-411
aI-603
aI689
aI-580
aI-992
aI-116
aI1202
aI1182
aI-1
aI-648
aI736
aI896
aI391
aI-502
aI249
aI844
aI-1267
aI-1922
aI-72
aI-1511
aI-121
aI-1986
aI-826
aI1697
aI1304
aI-1272
aI588
aI-340
aI1552
aI2032
aI-751
aI189
aI452
aI43
aI-1164
aI1133
aI2180
aI234
aI-170
aI-1819
aI-1638
aI136
aI-67
aI-1203
aI258
aI-262
aI1373
aI522
aI1027
aI509
aI1388
aI1084
aI-903
aI-16
aI-201
aI-344
aI-126
aI-206
aI132
aI-217
aI189
aI226
aI44
aI-166
aI-76
aI27
aa(lp84
I-1726
aI1342
aI-115
aI270
aI-430
aI938
aI-528
aI583
aI-361
aI1460
aI387
aI997
aI-403
aI358
aI3373
aI-585
aI294
aI2420
aI699
aI-208
aI-1144
aI-1223
aI1231
aI-2148
aI371
aI1667
aI-1262
aI1683
aI1067
aI181
aI2343
aI884
aI1748
aI-1175
aI-400
aI2201
aI282
aI1584
aI-233
aI-2473
aI115
aI2356
aI504
aI-360
aI-1486
aI-822
aI265
aI-1076
aI1123
aI664
aI-1616
aI-3587
aI2051
aI2152
aI22
aI-568
aI-19
aI-747
aI-644
aI-1705
aI44
aI486
aI1659
aI116
aI-740
aI1830
aI1239
aI490
aI-1416
aI2462
aI-198
aI1366
aI492
aI-3088
aI631
aI769
aI-224
aI-49
aI-2439
aI835
aI-264
aI-409
aI-1961
aI785
aI1986
aI383
aI-1265
aI-291
aI838
aI-1919
aI2714
aI-948
aI-94
aI1743
aI-827
aI-802
aI-1229
aI995
aI-453
aI-179
aI-551
aI18
aI-316
aI1557
aI-680
aI-972
aI3063
aI374
aI975
aI2477
aI-445
aI-36
aI-202
aI1487
aI-103
aI229
aI-34
aI47
aI15
aI-2
aa(lp85
I109
aI-1150
aI-490
aI-1395
aI1847
aI-488
aI238
aI14
aI-1141
aI-322
aI-496
aI1002
aI-1032
aI-101
aI176
aI-385
aI-581
aI933
aI-1838
aI220
aI-648
aI668
aI1182
aI-632
aI1008
aI-426
aI-1255
aI648
aI-287
aI-617
aI-942
aI581
aI-1305
aI438
aI-703
aI2077
aI-1074
aI-1165
aI-741
aI-159
aI590
aI-1586
aI1165
aI-1706
aI-538
aI499
aI951
aI-1317
aI96
aI-793
aI-218
aI-1550
aI577
aI-644
aI60
aI121
aI-1315
aI2772
aI-368
aI-696
aI62
aI836
aI51
aI1738
aI2344
aI-214
aI800
aI-439
aI1639
aI-1359
aI-1127
aI751
aI218
aI1976
aI-2489
aI306
aI446
aI1179
aI1291
aI624
aI-2071
aI1770
aI224
aI-2608
aI432
aI-1004
aI-1404
aI2100
aI-1616
aI-412
aI150
aI42
aI1186
aI-1028
aI2526
aI1137
aI1662
aI-692
aI470
aI-583
aI-224
aI771
aI-491
aI1085
aI-457
aI-95
aI-1630
aI1146
aI1665
aI30
aI369
aI-544
aI136
aI303
aI397
aI49
aI65
aI163
aI-50
aI15
aa(lp86
I-1314
aI-811
aI-1258
aI-1127
aI-725
aI-336
aI-694
aI-1714
aI-586
aI536
aI-1637
aI506
aI1425
aI1001
aI-1375
aI1792
aI732
aI-3393
aI1469
aI-1972
aI1176
aI108
aI-368
aI280
aI-226
aI-1439
aI1038
aI1755
aI-1581
aI153
aI-565
aI167
aI1787
aI604
aI617
aI-921
aI991
aI444
aI-804
aI-113
aI1212
aI1972
aI338
aI-328
aI-336
aI573
aI1966
aI-504
aI-1496
aI1129
aI-19
aI1748
aI-361
aI-3320
aI2322
aI1630
aI1165
aI150
aI1380
aI335
aI-334
aI603
aI-98
aI1197
aI-1464
aI-282
aI1033
aI317
aI-1210
aI1319
aI96
aI-2138
aI2374
aI2065
aI1054
aI1106
aI661
aI-323
aI3002
aI-417
aI-1057
aI200
aI-823
aI1385
aI-390
aI-2149
aI87
aI646
aI638
aI1767
aI651
aI-570
aI-1201
aI722
aI613
aI1134
aI685
aI403
aI-1347
aI-1070
aI-336
aI-1158
aI-428
aI29
aI-22
aI1373
aI-1814
aI-329
aI-855
aI-645
aI503
aI-973
aI74
aI123
aI219
aI-358
aI108
aI236
aI60
aI12
aa(lp87
I59
aI-1916
aI-645
aI-168
aI1067
aI906
aI-1171
aI-280
aI983
aI-1316
aI-1910
aI651
aI-1586
aI-1559
aI-507
aI-513
aI278
aI-155
aI1334
aI-1279
aI-155
aI424
aI-186
aI-1474
aI-2051
aI-634
aI-1046
aI-1044
aI-379
aI2155
aI-1537
aI1439
aI-165
aI-7
aI-705
aI-1866
aI-1083
aI-3434
aI269
aI185
aI-233
aI-1302
aI-1077
aI-789
aI-588
aI888
aI953
aI260
aI15
aI160
aI2371
aI614
aI-372
aI-532
aI236
aI736
aI270
aI771
aI224
aI55
aI-1759
aI883
aI911
aI473
aI570
aI-8
aI-885
aI1451
aI332
aI1288
aI-493
aI-594
aI-454
aI1427
aI-470
aI-837
aI-1
aI-1314
aI2867
aI-1550
aI-1505
aI2005
aI-38
aI528
aI-1184
aI-1913
aI-727
aI327
aI-2963
aI-139
aI669
aI-170
aI-1119
aI-1062
aI1960
aI408
aI-232
aI376
aI-1075
aI878
aI425
aI1135
aI2266
aI-381
aI1981
aI-599
aI-3194
aI-265
aI-652
aI-800
aI-110
aI-1257
aI-521
aI-1354
aI61
aI41
aI-85
aI-146
aI124
aI-18
aa(lp88
I-2249
aI2229
aI-423
aI481
aI-95
aI-127
aI-26
aI2052
aI-437
aI1662
aI-394
aI214
aI-166
aI170
aI741
aI1752
aI1164
aI-22
aI33
aI-1054
aI1631
aI-2015
aI-1181
aI-770
aI673
aI-340
aI972
aI-260
aI244
aI-1482
aI-578
aI893
aI-2263
aI304
aI1219
aI1780
aI-1180
aI-61
aI-1087
aI1657
aI-2628
aI2091
aI-1444
aI-1117
aI1600
aI-262
aI-2591
aI-434
aI-2272
aI-114
aI1241
aI-123
aI873
aI199
aI613
aI-2251
aI332
aI1095
aI-909
aI-2153
aI1957
aI679
aI35
aI174
aI-89
aI-500
aI2018
aI1252
aI-117
aI-1744
aI-893
aI-771
aI93
aI-207
aI-1432
aI-734
aI-924
aI-1588
aI-1539
aI-623
aI150
aI241
aI971
aI-1248
aI-1114
aI-128
aI-756
aI930
aI-1165
aI-256
aI2128
aI21
aI94
aI553
aI165
aI-625
aI1321
aI-9
aI-60
aI904
aI-410
aI2039
aI1483
aI127
aI-936
aI-1357
aI-114
aI477
aI723
aI725
aI-815
aI605
aI285
aI194
aI-24
aI201
aI4
aI42
aI-120
aI27
aa(lp89
I454
aI730
aI-234
aI1195
aI-1369
aI-2251
aI-298
aI-122
aI-204
aI-124
aI-108
aI-1740
aI-1218
aI94
aI-968
aI-2126
aI531
aI545
aI1980
aI1943
aI-1204
aI-111
aI260
aI-935
aI-238
aI2636
aI266
aI-449
aI1708
aI2755
aI1118
aI-539
aI28
aI510
aI-353
aI-3064
aI-990
aI924
aI363
aI542
aI198
aI218
aI-81
aI-443
aI-266
aI-1643
aI-842
aI-625
aI2038
aI1572
aI345
aI-67
aI-405
aI1142
aI-811
aI-132
aI387
aI1209
aI-1842
aI1680
aI1500
aI2440
aI-487
aI-840
aI146
aI1777
aI-692
aI1426
aI-206
aI436
aI539
aI-1254
aI-356
aI-906
aI1186
aI-1399
aI908
aI1964
aI-1363
aI931
aI-1544
aI-113
aI659
aI-222
aI-1194
aI-232
aI644
aI-1126
aI-75
aI407
aI234
aI9
aI-872
aI1070
aI-1703
aI-467
aI-1968
aI-1827
aI-1723
aI427
aI-428
aI185
aI768
aI181
aI694
aI184
aI1249
aI-970
aI-464
aI1057
aI678
aI-1061
aI-247
aI148
aI98
aI-382
aI84
aI184
aI29
aI3
aa(lp90
I-406
aI-404
aI160
aI1751
aI-900
aI-1076
aI1475
aI498
aI921
aI-436
aI-341
aI-190
aI426
aI-466
aI-563
aI-189
aI-1242
aI-818
aI-343
aI85
aI-890
aI-474
aI-1635
aI475
aI1221
aI-1749
aI-624
aI230
aI-1319
aI-269
aI530
aI-1513
aI94
aI1850
aI1599
aI-1442
aI720
aI393
aI2000
aI1172
aI204
aI237
aI723
aI-288
aI-204
aI-246
aI224
aI1080
aI-1256
aI-143
aI-260
aI308
aI-199
aI-296
aI33
aI1465
aI-577
aI283
aI206
aI2683
aI-462
aI-485
aI1507
aI-177
aI1467
aI717
aI476
aI2143
aI-947
aI173
aI-249
aI-2487
aI268
aI848
aI-238
aI1455
aI-300
aI-841
aI-151
aI1433
aI-1860
aI-497
aI1584
aI-269
aI-851
aI-728
aI1362
aI-1201
aI-137
aI1225
aI-1212
aI521
aI-884
aI-21
aI-1303
aI-584
aI-1098
aI-1918
aI-635
aI-1463
aI325
aI-2416
aI-1815
aI-855
aI975
aI2090
aI-497
aI-541
aI-892
aI-377
aI-2
aI-403
aI450
aI339
aI-83
aI-960
aI-168
aI-33
aI44
aI2
aa(lp91
I1173
aI474
aI-247
aI-65
aI1042
aI1697
aI-638
aI431
aI479
aI-1335
aI-225
aI1123
aI1101
aI668
aI-956
aI830
aI19
aI-1376
aI428
aI743
aI-657
aI-1271
aI-1664
aI136
aI-1498
aI-1631
aI-104
aI311
aI-627
aI-465
aI-1421
aI1801
aI1591
aI-313
aI1128
aI1198
aI793
aI729
aI-985
aI-1706
aI-574
aI-1019
aI566
aI861
aI50
aI-283
aI-1594
aI2172
aI1015
aI-794
aI575
aI-19
aI581
aI1066
aI1196
aI1353
aI489
aI-1717
aI1625
aI265
aI-1557
aI-1649
aI-168
aI-598
aI179
aI-2206
aI-441
aI-666
aI-166
aI1480
aI1384
aI1462
aI-1028
aI-642
aI1091
aI410
aI-1832
aI-1044
aI-898
aI-526
aI79
aI-1423
aI-348
aI3433
aI2215
aI1101
aI-590
aI-1455
aI-20
aI-96
aI-172
aI-125
aI-825
aI-330
aI1309
aI-1884
aI-583
aI372
aI-1341
aI-262
aI-901
aI-962
aI250
aI-804
aI-437
aI-329
aI-524
aI1057
aI-240
aI542
aI-460
aI216
aI-1207
aI122
aI-100
aI-200
aI-191
aI-39
aI-40
aI11
aa(lp92
I937
aI-1394
aI-294
aI-1234
aI-243
aI1792
aI-295
aI-88
aI-999
aI-292
aI1708
aI-633
aI486
aI1381
aI-2700
aI-630
aI1380
aI-2502
aI-325
aI298
aI824
aI1787
aI3676
aI1409
aI-1626
aI-254
aI-94
aI972
aI-430
aI1189
aI55
aI2952
aI707
aI-2677
aI-282
aI587
aI-982
aI693
aI-1575
aI-1728
aI-155
aI-1663
aI1552
aI614
aI-1622
aI-761
aI47
aI202
aI1313
aI834
aI948
aI-1741
aI-1084
aI-2478
aI-1907
aI2709
aI898
aI-433
aI-1231
aI188
aI-531
aI-940
aI-440
aI1245
aI-918
aI-1423
aI-18
aI572
aI421
aI-984
aI664
aI1765
aI-33
aI-665
aI1512
aI195
aI-2213
aI-313
aI1201
aI-555
aI414
aI-737
aI139
aI-2316
aI-399
aI-1252
aI282
aI1744
aI-113
aI999
aI-1129
aI829
aI835
aI-1383
aI-813
aI1586
aI-1041
aI513
aI-1381
aI-962
aI-837
aI260
aI822
aI1104
aI-663
aI-1851
aI-819
aI-210
aI0
aI1220
aI1733
aI-1543
aI227
aI333
aI-35
aI-215
aI-50
aI298
aI7
aI-18
aa(lp93
I-1892
aI-703
aI-40
aI-436
aI-1426
aI-140
aI-506
aI489
aI-421
aI2435
aI749
aI-1205
aI-957
aI-111
aI-689
aI937
aI1256
aI-1122
aI-236
aI969
aI1395
aI89
aI2046
aI778
aI1682
aI989
aI1359
aI-1522
aI291
aI51
aI1719
aI-2458
aI-1041
aI-928
aI1838
aI-865
aI60
aI1211
aI1319
aI2405
aI-222
aI1072
aI-234
aI46
aI335
aI679
aI1386
aI514
aI-842
aI-101
aI1217
aI1182
aI872
aI-791
aI1741
aI1570
aI494
aI1190
aI-376
aI1752
aI-286
aI-1218
aI-1078
aI908
aI-951
aI-568
aI-830
aI828
aI-681
aI-2619
aI-302
aI-1956
aI945
aI1948
aI565
aI1678
aI1066
aI224
aI-1832
aI951
aI1637
aI-1745
aI94
aI-138
aI-1144
aI-1325
aI246
aI-246
aI-23
aI1148
aI1562
aI632
aI-1550
aI1081
aI-495
aI-1515
aI598
aI-621
aI1545
aI425
aI-2787
aI-214
aI-371
aI742
aI-181
aI216
aI-89
aI-223
aI-1343
aI741
aI394
aI671
aI369
aI376
aI-189
aI373
aI-72
aI24
aI-40
aI-53
aa(lp94
I60
aI190
aI-31
aI-404
aI431
aI54
aI-87
aI647
aI-623
aI-2509
aI997
aI-514
aI377
aI1540
aI-921
aI-731
aI-675
aI-2338
aI1218
aI1024
aI-428
aI-248
aI-620
aI-1056
aI537
aI119
aI71
aI-1346
aI1897
aI-568
aI432
aI1129
aI-597
aI-361
aI-1220
aI-655
aI-168
aI868
aI-2382
aI-490
aI536
aI-1942
aI515
aI-611
aI-889
aI-782
aI-597
aI2266
aI283
aI-1557
aI1070
aI-270
aI-358
aI-1029
aI-697
aI774
aI1131
aI1520
aI-436
aI-191
aI-633
aI1052
aI731
aI-406
aI1
aI1045
aI14
aI735
aI-235
aI-689
aI880
aI2832
aI172
aI621
aI276
aI-459
aI-1126
aI951
aI-1545
aI-1329
aI-370
aI694
aI1057
aI-954
aI188
aI234
aI-1262
aI-628
aI-2156
aI655
aI-2659
aI-1402
aI-963
aI875
aI587
aI996
aI-497
aI376
aI-657
aI1813
aI-378
aI1108
aI-958
aI1023
aI-1067
aI-235
aI-549
aI-326
aI336
aI379
aI674
aI-522
aI489
aI-362
aI120
aI111
aI30
aI-1
aI-19
aI29
aa(lp95
I-34
aI79
aI922
aI994
aI1540
aI1946
aI-1390
aI1794
aI60
aI1064
aI-820
aI731
aI1418
aI-422
aI-1504
aI-1399
aI1203
aI2665
aI-1269
aI-1213
aI464
aI-193
aI2067
aI-222
aI306
aI-402
aI-1029
aI728
aI-1179
aI2950
aI1849
aI1969
aI-347
aI562
aI444
aI53
aI-604
aI544
aI758
aI-793
aI-432
aI852
aI-1286
aI-1691
aI-3006
aI1106
aI856
aI283
aI-413
aI-578
aI-302
aI-2273
aI1378
aI1566
aI-361
aI2036
aI-1331
aI-1663
aI208
aI-940
aI572
aI58
aI-1408
aI-228
aI983
aI453
aI1927
aI540
aI718
aI-104
aI-275
aI1082
aI-506
aI383
aI-1100
aI1672
aI-1291
aI-301
aI-1360
aI1919
aI-511
aI2455
aI-1026
aI-400
aI903
aI543
aI0
aI1085
aI1045
aI-260
aI277
aI-36
aI1850
aI231
aI-426
aI-731
aI-1967
aI212
aI-821
aI-558
aI-433
aI1427
aI-955
aI-980
aI-490
aI-1796
aI2303
aI-731
aI677
aI1271
aI-488
aI-103
aI469
aI324
aI-360
aI94
aI-153
aI68
aI-67
aI23
aa(lp96
I-677
aI-2528
aI1027
aI-562
aI1942
aI-41
aI-1410
aI1245
aI691
aI510
aI-83
aI869
aI-517
aI-412
aI-1151
aI147
aI-641
aI-561
aI-209
aI-1159
aI2023
aI800
aI893
aI688
aI-446
aI-2343
aI-220
aI440
aI-794
aI763
aI42
aI1321
aI-404
aI752
aI576
aI7
aI-1049
aI-1533
aI2936
aI794
aI97
aI-1422
aI-371
aI-3069
aI-690
aI338
aI-199
aI-412
aI507
aI1552
aI-111
aI-584
aI-968
aI-1789
aI577
aI361
aI-2518
aI-262
aI-911
aI-101
aI-462
aI-1325
aI356
aI847
aI2300
aI-376
aI331
aI1451
aI408
aI588
aI1559
aI-568
aI1168
aI1408
aI-1551
aI2106
aI-41
aI171
aI2896
aI-155
aI-3133
aI516
aI-444
aI-2833
aI-2318
aI-2575
aI862
aI1263
aI-1251
aI795
aI-1842
aI829
aI1586
aI-1476
aI115
aI1948
aI1819
aI187
aI823
aI-1351
aI1127
aI1193
aI267
aI-1203
aI-1238
aI-982
aI-3888
aI-1926
aI1107
aI-1470
aI1223
aI-583
aI1191
aI-966
aI777
aI-793
aI53
aI181
aI-43
aI0
aa(lp97
I-823
aI-481
aI445
aI1152
aI-360
aI-499
aI-251
aI-526
aI-653
aI2627
aI1476
aI-2043
aI1902
aI1908
aI-710
aI-9
aI421
aI822
aI199
aI-1410
aI812
aI1777
aI2149
aI727
aI972
aI-935
aI-1576
aI329
aI3159
aI-670
aI1391
aI37
aI1489
aI376
aI1069
aI-476
aI680
aI17
aI982
aI-978
aI501
aI995
aI123
aI473
aI-1620
aI2573
aI982
aI-1442
aI234
aI898
aI-1329
aI-1479
aI301
aI-108
aI-263
aI-231
aI-414
aI-1648
aI-98
aI1722
aI1662
aI-2082
aI-1536
aI-88
aI-1708
aI1922
aI211
aI-861
aI28
aI952
aI-29
aI-1753
aI-370
aI1069
aI-1592
aI-87
aI-150
aI-487
aI214
aI2699
aI527
aI-116
aI-907
aI880
aI1326
aI-1814
aI453
aI258
aI1624
aI160
aI-2081
aI1066
aI224
aI448
aI-658
aI1153
aI2000
aI-123
aI-591
aI-233
aI566
aI-1258
aI-1897
aI-115
aI-1824
aI568
aI1265
aI280
aI-879
aI-130
aI158
aI-125
aI293
aI-370
aI343
aI-285
aI78
aI-89
aI-20
aI-6
aa(lp98
I102
aI-1086
aI-856
aI-931
aI1335
aI-546
aI-1150
aI-1329
aI1861
aI2388
aI122
aI1368
aI-2645
aI-723
aI3457
aI-1715
aI-1499
aI2399
aI232
aI-220
aI-154
aI1725
aI119
aI-1577
aI-486
aI769
aI-1288
aI1706
aI1949
aI1033
aI21
aI-1244
aI1453
aI1515
aI-1814
aI543
aI1402
aI-1268
aI-1098
aI-304
aI882
aI769
aI-385
aI-1837
aI-1956
aI853
aI1068
aI-1671
aI396
aI2468
aI-2417
aI-333
aI-72
aI333
aI-437
aI-1952
aI-493
aI1534
aI-802
aI-463
aI-325
aI-915
aI1657
aI730
aI554
aI3345
aI132
aI-1519
aI207
aI3645
aI-680
aI-939
aI486
aI-2465
aI-398
aI1539
aI593
aI1005
aI2143
aI-500
aI-2343
aI2468
aI-600
aI-610
aI-107
aI-3584
aI-850
aI-845
aI-1381
aI-2034
aI-105
aI-476
aI-50
aI-790
aI528
aI2105
aI696
aI-269
aI-253
aI-2109
aI851
aI-925
aI-685
aI-958
aI915
aI6
aI-2404
aI-1351
aI128
aI-670
aI-207
aI6
aI-648
aI-504
aI-320
aI233
aI34
aI-202
aI6
aI6
aa(lp99
I-1410
aI-293
aI157
aI698
aI500
aI577
aI111
aI787
aI-1070
aI2014
aI2127
aI-386
aI-33
aI143
aI1150
aI-668
aI1185
aI1584
aI-673
aI-1638
aI98
aI631
aI-569
aI-612
aI1756
aI1381
aI-578
aI-1570
aI-275
aI672
aI1365
aI1259
aI159
aI1059
aI-560
aI846
aI1255
aI955
aI187
aI1270
aI-880
aI965
aI-3214
aI-1021
aI-2140
aI1609
aI-87
aI85
aI-1487
aI-1522
aI-735
aI-544
aI797
aI80
aI811
aI908
aI381
aI-521
aI1509
aI-1546
aI83
aI-978
aI1002
aI-1772
aI691
aI-447
aI-278
aI1461
aI-215
aI-973
aI-629
aI301
aI-280
aI1415
aI-1393
aI1156
aI2175
aI-1850
aI-265
aI1217
aI293
aI1949
aI-624
aI-94
aI459
aI542
aI79
aI-928
aI1185
aI-241
aI-935
aI436
aI-1131
aI2351
aI-110
aI-760
aI-784
aI1872
aI710
aI2359
aI-703
aI-18
aI261
aI-605
aI-1155
aI-1558
aI1820
aI-201
aI154
aI-39
aI-458
aI1499
aI986
aI316
aI-383
aI33
aI-194
aI158
aI23
aI25
aa(lp100
I1310
aI1838
aI-785
aI-1564
aI1834
aI836
aI204
aI30
aI-1178
aI-503
aI334
aI-1250
aI-65
aI1594
aI1654
aI-585
aI384
aI1809
aI202
aI-373
aI1598
aI-1589
aI218
aI-76
aI320
aI31
aI-1595
aI-895
aI3176
aI-532
aI-702
aI1371
aI833
aI253
aI-1511
aI1764
aI1288
aI-1112
aI-3009
aI-1017
aI53
aI-2079
aI-946
aI-597
aI-576
aI329
aI-60
aI86
aI47
aI-2019
aI-122
aI360
aI11
aI561
aI-37
aI-971
aI1843
aI-637
aI1441
aI-1771
aI750
aI-670
aI-532
aI-962
aI-663
aI2597
aI1361
aI-1464
aI1491
aI639
aI-296
aI1909
aI-1719
aI-712
aI-1043
aI-153
aI-1725
aI-252
aI-1409
aI-1792
aI1258
aI1841
aI698
aI1406
aI2858
aI319
aI-2168
aI-343
aI887
aI-1806
aI-979
aI-1114
aI274
aI1208
aI1293
aI1074
aI730
aI1315
aI-859
aI1126
aI213
aI-281
aI-1445
aI-442
aI42
aI-1165
aI734
aI629
aI318
aI1026
aI-943
aI793
aI-338
aI8
aI-314
aI521
aI121
aI152
aI-25
aI-49
aa(lp101
I1246
aI281
aI298
aI-600
aI-155
aI37
aI-1116
aI1305
aI-808
aI-1868
aI-93
aI-962
aI1163
aI-375
aI672
aI-467
aI816
aI-667
aI-942
aI-18
aI1656
aI-907
aI318
aI69
aI242
aI154
aI1321
aI-1470
aI686
aI900
aI-340
aI590
aI1515
aI1068
aI1641
aI1000
aI-398
aI424
aI-910
aI-452
aI-410
aI-1111
aI-61
aI518
aI-324
aI436
aI1262
aI2899
aI-248
aI-922
aI732
aI2813
aI2029
aI1783
aI813
aI-431
aI1519
aI-1607
aI631
aI-1181
aI-788
aI-1554
aI1003
aI-1703
aI-538
aI-1713
aI757
aI-1876
aI-405
aI44
aI1725
aI1151
aI-2707
aI1286
aI-491
aI298
aI247
aI1843
aI-1961
aI-835
aI2604
aI1211
aI1650
aI1477
aI2728
aI862
aI-493
aI-194
aI119
aI-295
aI-119
aI60
aI767
aI1323
aI141
aI-1859
aI-1304
aI-412
aI-1020
aI770
aI-203
aI319
aI-160
aI-878
aI-811
aI1099
aI1141
aI961
aI123
aI996
aI-136
aI167
aI-255
aI177
aI-242
aI12
aI10
aI116
aI39
aI6
aa(lp102
I292
aI1280
aI-447
aI2061
aI-219
aI-1104
aI-1208
aI-194
aI-1071
aI554
aI-1861
aI66
aI260
aI1021
aI98
aI-246
aI521
aI1540
aI1173
aI1684
aI-3102
aI-630
aI1000
aI-1471
aI-85
aI-328
aI-867
aI2090
aI-572
aI1425
aI1465
aI-937
aI-240
aI632
aI673
aI42
aI164
aI1189
aI1588
aI-616
aI992
aI1865
aI722
aI482
aI-371
aI-1819
aI-257
aI-135
aI606
aI1980
aI-933
aI-1136
aI476
aI-171
aI-671
aI-1637
aI-771
aI-787
aI-1862
aI777
aI2124
aI3303
aI-51
aI825
aI-637
aI97
aI986
aI-1628
aI-1434
aI699
aI-142
aI1588
aI266
aI-1772
aI1363
aI-1714
aI-2267
aI-896
aI-2291
aI1051
aI-2222
aI-1343
aI635
aI-848
aI-425
aI1718
aI2385
aI1518
aI-219
aI913
aI1968
aI-1197
aI619
aI-2326
aI-1238
aI-117
aI-1107
aI-1092
aI-1338
aI-1346
aI1585
aI350
aI-311
aI6
aI301
aI1246
aI929
aI224
aI1166
aI964
aI408
aI-439
aI67
aI422
aI384
aI-359
aI73
aI-84
aI-40
aI47
aa(lp103
I683
aI821
aI993
aI-222
aI1819
aI1138
aI-120
aI1030
aI-844
aI-467
aI658
aI2730
aI540
aI-46
aI439
aI910
aI389
aI296
aI1545
aI1268
aI-99
aI-232
aI-1090
aI-929
aI-802
aI-388
aI1354
aI-651
aI-1211
aI-242
aI-70
aI1240
aI-457
aI-838
aI592
aI2006
aI-551
aI549
aI-2388
aI-156
aI215
aI883
aI666
aI1073
aI-1132
aI-1118
aI-2473
aI-1112
aI458
aI1114
aI-115
aI747
aI-2400
aI1946
aI-530
aI-1800
aI-425
aI-118
aI-819
aI-2607
aI-392
aI11
aI214
aI-365
aI-924
aI-1699
aI420
aI-2042
aI-608
aI22
aI385
aI4147
aI-514
aI-3771
aI-44
aI613
aI-1676
aI-902
aI-444
aI-1572
aI1172
aI791
aI683
aI-71
aI-1184
aI758
aI-1008
aI-402
aI305
aI-1669
aI1043
aI-957
aI1017
aI-2351
aI263
aI-660
aI-1660
aI519
aI-312
aI-348
aI-1131
aI2251
aI361
aI-1372
aI-818
aI-605
aI-377
aI-382
aI293
aI121
aI-840
aI-230
aI-218
aI-235
aI-297
aI319
aI61
aI-94
aI52
aI-27
aa(lp104
I1759
aI1666
aI836
aI30
aI-1394
aI2462
aI285
aI1082
aI1922
aI84
aI-813
aI-1500
aI301
aI-872
aI1755
aI-152
aI307
aI2214
aI-1331
aI-1386
aI-338
aI-1804
aI-174
aI2670
aI754
aI-950
aI-110
aI55
aI542
aI-3343
aI-360
aI732
aI275
aI-689
aI1109
aI814
aI1059
aI-859
aI418
aI-829
aI-2344
aI-613
aI-474
aI-1213
aI-357
aI882
aI381
aI-817
aI332
aI552
aI-870
aI-1859
aI638
aI150
aI668
aI739
aI26
aI-922
aI1865
aI-1541
aI-1352
aI-1050
aI986
aI-2208
aI669
aI-896
aI-1624
aI1041
aI1107
aI621
aI-159
aI-1749
aI-839
aI-1196
aI-61
aI-1854
aI-372
aI-2182
aI402
aI-701
aI1321
aI-3617
aI-2052
aI638
aI-92
aI-257
aI1029
aI230
aI2316
aI-1387
aI629
aI-101
aI-710
aI1576
aI-890
aI-2717
aI794
aI1787
aI1023
aI1310
aI-116
aI-1165
aI897
aI754
aI440
aI-1714
aI-571
aI498
aI-901
aI68
aI-451
aI-122
aI-1565
aI528
aI-65
aI169
aI-318
aI-135
aI-107
aI-43
aa(lp105
I1337
aI2162
aI2344
aI-140
aI-844
aI587
aI-1135
aI687
aI2011
aI1917
aI-563
aI-197
aI-402
aI704
aI-119
aI1812
aI-61
aI-205
aI426
aI652
aI976
aI-1121
aI449
aI172
aI-426
aI-131
aI2468
aI226
aI346
aI-438
aI1047
aI-2107
aI-2355
aI-1565
aI101
aI-1941
aI-120
aI-501
aI375
aI-397
aI-407
aI1788
aI268
aI-1380
aI289
aI-148
aI-52
aI1252
aI255
aI438
aI351
aI776
aI726
aI-196
aI1134
aI-2146
aI285
aI-448
aI-398
aI-518
aI956
aI2419
aI-171
aI840
aI-1359
aI835
aI-447
aI-552
aI-973
aI-1617
aI295
aI249
aI1117
aI-1486
aI608
aI-724
aI-734
aI858
aI-163
aI-1583
aI271
aI-1816
aI-1325
aI1079
aI-2200
aI2136
aI2317
aI144
aI717
aI698
aI1350
aI-131
aI296
aI-278
aI-1215
aI-741
aI822
aI568
aI786
aI-694
aI-140
aI1557
aI-628
aI28
aI62
aI-146
aI-712
aI-342
aI-495
aI-183
aI-367
aI-496
aI161
aI186
aI190
aI8
aI-202
aI179
aI39
aI7
aa(lp106
I-286
aI-1464
aI1339
aI2
aI-2340
aI-679
aI1383
aI-161
aI1167
aI-1628
aI312
aI-451
aI-326
aI633
aI-1853
aI-694
aI-181
aI-1341
aI-157
aI1225
aI-566
aI1421
aI-542
aI561
aI1367
aI871
aI-326
aI-1516
aI-1755
aI1578
aI104
aI-1354
aI526
aI325
aI1018
aI-2279
aI-290
aI-354
aI3050
aI427
aI2130
aI-277
aI-304
aI60
aI627
aI1626
aI687
aI-1391
aI521
aI-3069
aI-1117
aI148
aI52
aI-1031
aI331
aI177
aI-218
aI-1956
aI-285
aI-66
aI-1011
aI1158
aI-219
aI-1653
aI260
aI-390
aI-1608
aI2402
aI-1624
aI-474
aI-1282
aI-4167
aI698
aI1644
aI-2242
aI-595
aI1670
aI-1012
aI1165
aI1464
aI298
aI-270
aI568
aI-264
aI-1283
aI-15
aI2016
aI-2093
aI-692
aI664
aI-1928
aI1120
aI-1198
aI1557
aI-1661
aI-744
aI-1082
aI-1266
aI-775
aI503
aI781
aI-762
aI-69
aI69
aI2096
aI1398
aI1413
aI141
aI-682
aI-731
aI-197
aI247
aI141
aI-424
aI336
aI-151
aI51
aI261
aI-9
aI-26
aa(lp107
I887
aI-629
aI239
aI1904
aI1227
aI-658
aI-1417
aI1407
aI1442
aI-693
aI-2198
aI327
aI26
aI-1324
aI-1854
aI-1192
aI-115
aI86
aI1388
aI1607
aI-1720
aI1447
aI1228
aI-361
aI-344
aI1861
aI540
aI-229
aI-1814
aI1687
aI1006
aI-850
aI-1719
aI-372
aI1177
aI-1480
aI-1068
aI-534
aI1084
aI-22
aI439
aI-350
aI892
aI-1399
aI-1510
aI-280
aI-359
aI211
aI509
aI141
aI2617
aI-1909
aI-945
aI1206
aI-980
aI1964
aI-1441
aI795
aI-644
aI1417
aI535
aI1002
aI326
aI1603
aI2176
aI-499
aI-1153
aI964
aI297
aI124
aI-687
aI-503
aI-57
aI-245
aI-1142
aI738
aI-172
aI-604
aI-1338
aI1990
aI-1427
aI302
aI-435
aI-1305
aI-2104
aI-249
aI830
aI277
aI-2490
aI715
aI192
aI751
aI552
aI-1760
aI-4
aI-1636
aI-1487
aI-974
aI-813
aI84
aI-1499
aI1817
aI987
aI-716
aI102
aI-919
aI454
aI-2608
aI-1136
aI1719
aI231
aI427
aI349
aI312
aI-247
aI-120
aI322
aI-5
aI17
aI-18
aa(lp108
I-874
aI-329
aI-280
aI727
aI-2049
aI-9
aI2010
aI-1373
aI-893
aI-1098
aI-1524
aI-432
aI-1528
aI-612
aI2422
aI1245
aI888
aI-165
aI925
aI-383
aI-305
aI-1046
aI-1353
aI1540
aI-1331
aI1390
aI1195
aI-1770
aI729
aI-1536
aI-503
aI-495
aI217
aI-691
aI-427
aI-336
aI-240
aI458
aI-1391
aI1023
aI455
aI1346
aI1893
aI1594
aI2860
aI72
aI21
aI-139
aI-1321
aI-983
aI2081
aI2005
aI614
aI-410
aI1107
aI-512
aI1249
aI772
aI775
aI729
aI-1329
aI-803
aI654
aI1120
aI-1488
aI-1724
aI-1535
aI-154
aI678
aI786
aI-192
aI-547
aI-830
aI2691
aI1273
aI-1722
aI1527
aI-429
aI-251
aI-63
aI2497
aI-542
aI-194
aI463
aI903
aI659
aI-584
aI526
aI598
aI-520
aI1975
aI845
aI-1124
aI2377
aI-135
aI1105
aI449
aI635
aI1252
aI924
aI1041
aI-1799
aI951
aI1450
aI1222
aI919
aI-67
aI1111
aI-589
aI-510
aI-587
aI-345
aI-485
aI273
aI402
aI-14
aI-30
aI-8
aI48
aI5
aa(lp109
I33
aI-448
aI-409
aI1078
aI2064
aI260
aI55
aI2243
aI-1581
aI411
aI681
aI2037
aI1530
aI544
aI-2125
aI777
aI217
aI-1905
aI414
aI-1422
aI334
aI1684
aI-424
aI-2018
aI-2934
aI-1743
aI-252
aI708
aI-1150
aI1708
aI-2395
aI2826
aI748
aI418
aI-808
aI1139
aI-3106
aI1227
aI-3232
aI-1184
aI-2151
aI888
aI1051
aI-461
aI-1004
aI-1519
aI-3250
aI-522
aI320
aI1560
aI761
aI-1531
aI-1406
aI-781
aI-1032
aI968
aI-89
aI515
aI-164
aI-1020
aI692
aI-389
aI137
aI849
aI362
aI-315
aI1715
aI-126
aI-14
aI-518
aI543
aI1562
aI-611
aI514
aI477
aI1843
aI-343
aI-1515
aI1474
aI61
aI-67
aI2747
aI197
aI-2130
aI28
aI-400
aI-27
aI529
aI-12
aI517
aI-1331
aI934
aI1511
aI-62
aI837
aI2572
aI31
aI-111
aI-2641
aI-430
aI-1399
aI-27
aI-188
aI-2114
aI-2070
aI68
aI-1191
aI-724
aI1102
aI-290
aI193
aI-216
aI1058
aI-567
aI-336
aI-802
aI-134
aI-148
aI44
aI-31
aa(lp110
I-3141
aI1391
aI-1594
aI-206
aI-2768
aI1021
aI250
aI-1617
aI-2725
aI2928
aI-227
aI-1543
aI491
aI1507
aI1166
aI1006
aI652
aI497
aI501
aI-1017
aI-58
aI-2101
aI-1214
aI-146
aI1404
aI-445
aI406
aI1470
aI1243
aI-3079
aI-334
aI18
aI688
aI509
aI-97
aI17
aI1318
aI1357
aI-2066
aI631
aI11
aI1611
aI-172
aI1220
aI465
aI-2018
aI-10
aI-2005
aI-1446
aI2205
aI-1710
aI1433
aI-1203
aI-2209
aI-140
aI-1017
aI1249
aI1003
aI1028
aI565
aI1716
aI1147
aI-1029
aI103
aI-3084
aI1393
aI832
aI-1312
aI-242
aI131
aI-215
aI-1286
aI358
aI347
aI2324
aI-331
aI31
aI-1678
aI-658
aI-645
aI-52
aI-2603
aI-316
aI948
aI67
aI-520
aI1163
aI-54
aI2870
aI402
aI701
aI-810
aI34
aI876
aI-464
aI624
aI1131
aI912
aI44
aI1020
aI-1538
aI-2574
aI123
aI698
aI-472
aI1114
aI24
aI1067
aI-1799
aI258
aI175
aI414
aI-820
aI212
aI-43
aI156
aI67
aI-194
aI-58
aI-36
aa(lp111
I-70
aI1869
aI423
aI-213
aI1100
aI733
aI-2051
aI1546
aI-42
aI-2895
aI-1388
aI69
aI-506
aI968
aI-1040
aI401
aI106
aI156
aI-540
aI528
aI-232
aI-2265
aI-1435
aI1575
aI1229
aI-1042
aI436
aI958
aI181
aI-3244
aI-343
aI536
aI-1048
aI721
aI1390
aI2332
aI1639
aI2245
aI805
aI-718
aI-51
aI-2606
aI-342
aI-1204
aI921
aI-2068
aI-273
aI2366
aI494
aI-1262
aI-1873
aI-1169
aI2248
aI-262
aI1485
aI1567
aI-1038
aI1620
aI110
aI-648
aI-302
aI-890
aI199
aI-1328
aI-158
aI725
aI148
aI-209
aI582
aI753
aI2760
aI241
aI1974
aI1984
aI-93
aI330
aI-1494
aI915
aI-998
aI-720
aI-1776
aI-972
aI-946
aI-442
aI448
aI682
aI275
aI-250
aI-1317
aI640
aI-1384
aI-1209
aI-1902
aI1711
aI1654
aI-1790
aI787
aI-625
aI-1071
aI26
aI561
aI286
aI-503
aI1327
aI-397
aI-1026
aI-1148
aI-143
aI360
aI32
aI70
aI1077
aI-1249
aI261
aI292
aI598
aI-2
aI29
aI-55
aI14
aa(lp112
I-388
aI-222
aI-934
aI844
aI-2169
aI-1173
aI-175
aI956
aI-1006
aI702
aI1794
aI-854
aI-244
aI-1199
aI1239
aI1840
aI-776
aI-1577
aI-510
aI-1402
aI-89
aI267
aI-814
aI790
aI241
aI-1579
aI-346
aI-209
aI364
aI-2334
aI-795
aI-176
aI533
aI1030
aI-199
aI213
aI505
aI-177
aI590
aI1643
aI-1675
aI1930
aI-650
aI-428
aI240
aI-547
aI1942
aI2423
aI-2625
aI2084
aI778
aI790
aI1218
aI-1500
aI-822
aI-810
aI442
aI126
aI287
aI449
aI-724
aI728
aI467
aI-1099
aI357
aI-903
aI590
aI624
aI-303
aI-1338
aI-528
aI-46
aI52
aI-944
aI1697
aI-329
aI33
aI645
aI32
aI-1073
aI-63
aI-1256
aI778
aI-1018
aI-204
aI292
aI170
aI890
aI85
aI1095
aI1429
aI-992
aI-698
aI-727
aI-122
aI-2261
aI1890
aI1923
aI-20
aI97
aI944
aI-658
aI545
aI-141
aI-1439
aI738
aI-1747
aI253
aI320
aI-328
aI477
aI-1189
aI317
aI96
aI36
aI-350
aI-176
aI84
aI-10
aI29
aa(lp113
I525
aI1966
aI973
aI724
aI-637
aI-327
aI312
aI62
aI-1912
aI264
aI2213
aI109
aI-146
aI2058
aI-808
aI-320
aI1158
aI263
aI778
aI358
aI-144
aI385
aI625
aI235
aI205
aI-832
aI-360
aI990
aI244
aI-438
aI-351
aI-1096
aI207
aI-300
aI-1067
aI1261
aI804
aI1398
aI1082
aI-363
aI365
aI-677
aI-1567
aI1138
aI761
aI-2771
aI-2932
aI-1951
aI1219
aI295
aI-3278
aI-178
aI-1272
aI-1043
aI-1927
aI-190
aI265
aI-1266
aI-1161
aI959
aI2456
aI918
aI176
aI-1468
aI-1037
aI1410
aI-366
aI-330
aI-1350
aI-684
aI475
aI1340
aI-1135
aI-1179
aI300
aI-732
aI419
aI212
aI84
aI-112
aI727
aI-1303
aI869
aI-638
aI-577
aI2037
aI1565
aI-626
aI1691
aI768
aI-2754
aI379
aI1558
aI-1154
aI-526
aI504
aI-219
aI-758
aI-2203
aI-255
aI714
aI291
aI-1198
aI-470
aI-794
aI-1431
aI2919
aI226
aI961
aI258
aI-1249
aI538
aI-209
aI-337
aI-127
aI-222
aI15
aI-192
aI61
aI51
aa(lp114
I-1850
aI268
aI-898
aI1574
aI17
aI660
aI-1981
aI680
aI-14
aI437
aI1054
aI1093
aI475
aI74
aI-678
aI900
aI-136
aI16
aI507
aI-390
aI-1432
aI435
aI-621
aI-938
aI-809
aI-207
aI-878
aI206
aI-2514
aI1336
aI236
aI457
aI-328
aI931
aI845
aI577
aI-229
aI1038
aI-264
aI385
aI1399
aI307
aI89
aI1015
aI634
aI1411
aI-176
aI2445
aI-2100
aI-1738
aI-16
aI27
aI1985
aI-991
aI1250
aI534
aI795
aI772
aI-127
aI-1288
aI1198
aI-942
aI-1688
aI-843
aI-672
aI-1235
aI-997
aI-913
aI-250
aI-371
aI-232
aI-161
aI547
aI1971
aI279
aI-381
aI1019
aI-1413
aI452
aI848
aI16
aI437
aI158
aI634
aI852
aI-2664
aI-535
aI-415
aI-1933
aI1372
aI902
aI134
aI-2709
aI1605
aI1428
aI-1506
aI913
aI-657
aI-32
aI-927
aI-681
aI-1163
aI280
aI-923
aI-250
aI-1084
aI168
aI668
aI402
aI-114
aI-831
aI244
aI-336
aI167
aI-231
aI150
aI147
aI301
aI-15
aI52
aa(lp115
I-3584
aI-708
aI82
aI-1241
aI-59
aI62
aI-875
aI-215
aI-1432
aI294
aI1817
aI-434
aI-1153
aI-981
aI1394
aI443
aI491
aI475
aI-62
aI-1298
aI738
aI-939
aI813
aI67
aI940
aI834
aI-1124
aI-1422
aI273
aI1152
aI814
aI1138
aI415
aI-653
aI-1107
aI356
aI703
aI240
aI1289
aI1427
aI-77
aI-826
aI-2078
aI307
aI1325
aI637
aI1027
aI-1095
aI-1207
aI-1313
aI-353
aI363
aI611
aI-819
aI-1889
aI355
aI123
aI-58
aI-1987
aI16
aI331
aI221
aI433
aI-859
aI-1421
aI2151
aI493
aI1265
aI-272
aI-1586
aI25
aI-48
aI722
aI2083
aI-237
aI486
aI612
aI1348
aI-1068
aI-155
aI366
aI1381
aI9
aI-537
aI372
aI-327
aI-1351
aI-440
aI-258
aI520
aI1853
aI-394
aI-787
aI1745
aI168
aI516
aI608
aI391
aI-528
aI1120
aI371
aI900
aI1026
aI1339
aI-518
aI-1661
aI2475
aI773
aI240
aI222
aI-545
aI1387
aI244
aI183
aI227
aI809
aI137
aI155
aI-27
aI85
aa(lp116
I828
aI1584
aI-104
aI2015
aI1103
aI393
aI-319
aI599
aI-1285
aI-724
aI-2912
aI-266
aI-271
aI2155
aI-875
aI127
aI2931
aI1630
aI1237
aI-672
aI883
aI-159
aI530
aI252
aI-867
aI680
aI500
aI-367
aI331
aI631
aI-3745
aI-651
aI406
aI251
aI-1000
aI1057
aI-137
aI-786
aI-1585
aI-1251
aI-1847
aI-440
aI399
aI441
aI176
aI-1394
aI-846
aI-2046
aI253
aI-224
aI-198
aI-398
aI-144
aI-797
aI-123
aI-408
aI247
aI-1514
aI2159
aI-8
aI-86
aI-55
aI-1519
aI2026
aI181
aI-255
aI171
aI-1602
aI717
aI932
aI-662
aI-887
aI-685
aI1375
aI-2141
aI-153
aI594
aI-931
aI-752
aI189
aI2875
aI61
aI-228
aI-1646
aI401
aI1117
aI1342
aI2538
aI1503
aI-993
aI-660
aI1268
aI1854
aI-511
aI943
aI1155
aI-711
aI446
aI-505
aI734
aI1012
aI-457
aI492
aI-922
aI305
aI559
aI7
aI-919
aI-425
aI-110
aI-1201
aI1629
aI-218
aI48
aI318
aI220
aI381
aI266
aI-8
aI-62
aa(lp117
I-342
aI484
aI-255
aI1717
aI-1362
aI664
aI-396
aI-817
aI48
aI1578
aI-339
aI1370
aI231
aI-208
aI1994
aI66
aI-834
aI-137
aI1616
aI-2839
aI741
aI-589
aI-489
aI-1036
aI-2567
aI-3
aI-143
aI1154
aI-483
aI-401
aI80
aI914
aI1847
aI-376
aI-676
aI-700
aI-246
aI-404
aI-1011
aI-1059
aI-661
aI2299
aI-1084
aI2007
aI258
aI-10
aI521
aI1928
aI-1128
aI451
aI-156
aI2157
aI297
aI-875
aI-1056
aI-1419
aI1462
aI-2177
aI874
aI-1330
aI-612
aI134
aI562
aI347
aI-2289
aI-570
aI-134
aI-959
aI-907
aI2276
aI-149
aI-68
aI-584
aI-1884
aI1799
aI-1889
aI-838
aI-2498
aI750
aI-2185
aI1046
aI-1691
aI-1259
aI1135
aI-999
aI731
aI1195
aI1201
aI524
aI96
aI1346
aI-236
aI-217
aI511
aI-670
aI842
aI698
aI1809
aI-402
aI713
aI1323
aI-1460
aI1663
aI-320
aI853
aI1447
aI-571
aI645
aI-1045
aI-53
aI-256
aI-151
aI-214
aI-175
aI-35
aI-397
aI-329
aI-66
aI-76
aI45
aa(lp118
I577
aI151
aI306
aI-1947
aI-776
aI145
aI1272
aI-1320
aI2081
aI1022
aI-438
aI-938
aI-2307
aI-593
aI2112
aI-2084
aI-306
aI1831
aI-1588
aI117
aI-938
aI162
aI660
aI-37
aI-809
aI1507
aI-739
aI-885
aI2515
aI1236
aI535
aI-154
aI731
aI485
aI-1156
aI-1739
aI1487
aI-1648
aI173
aI-90
aI1147
aI-2386
aI-1289
aI1495
aI183
aI1386
aI2294
aI765
aI1349
aI856
aI2258
aI1546
aI-1959
aI1426
aI-801
aI-1720
aI-153
aI-1009
aI1741
aI1267
aI304
aI-2713
aI504
aI-963
aI-865
aI1047
aI-787
aI595
aI-511
aI2633
aI980
aI580
aI-2227
aI-717
aI390
aI625
aI-272
aI920
aI-927
aI-1602
aI213
aI205
aI1375
aI1523
aI456
aI-558
aI123
aI-2389
aI1533
aI-1022
aI-962
aI-979
aI1598
aI439
aI-1074
aI348
aI-1807
aI1844
aI1929
aI206
aI1411
aI-452
aI962
aI-1182
aI1835
aI-151
aI-708
aI-286
aI-102
aI443
aI223
aI544
aI-380
aI30
aI406
aI127
aI-40
aI178
aI37
aI103
aa(lp119
I2525
aI1258
aI-1011
aI-2742
aI1151
aI-2341
aI1184
aI-2344
aI709
aI-6
aI8
aI670
aI2029
aI-271
aI-455
aI-1833
aI-1400
aI-676
aI-828
aI661
aI1064
aI-334
aI648
aI-507
aI1332
aI-7
aI364
aI2237
aI-1752
aI548
aI-582
aI-1826
aI-709
aI588
aI342
aI-198
aI670
aI-1051
aI197
aI351
aI2269
aI-1411
aI399
aI-423
aI809
aI-193
aI-293
aI-578
aI-27
aI-1145
aI-1420
aI2306
aI-1134
aI-523
aI247
aI-685
aI782
aI1344
aI-284
aI-179
aI1989
aI2212
aI353
aI1846
aI1879
aI231
aI797
aI-2396
aI-695
aI-1999
aI165
aI-697
aI468
aI-1081
aI-302
aI283
aI1008
aI2373
aI894
aI-1395
aI-756
aI141
aI907
aI2036
aI364
aI494
aI-404
aI388
aI-32
aI692
aI233
aI-1027
aI996
aI-2381
aI795
aI1378
aI-168
aI-1140
aI1899
aI-2034
aI-1163
aI1575
aI-1149
aI346
aI1333
aI1418
aI-345
aI809
aI561
aI-402
aI1188
aI962
aI514
aI577
aI8
aI-382
aI-108
aI-33
aI-76
aI-12
aa(lp120
I-628
aI951
aI-1504
aI-1145
aI437
aI517
aI-705
aI-1039
aI695
aI1731
aI-714
aI345
aI940
aI145
aI1576
aI1109
aI2194
aI560
aI730
aI-1785
aI544
aI-809
aI305
aI111
aI-787
aI447
aI1148
aI-344
aI1378
aI1757
aI205
aI-408
aI27
aI-840
aI-556
aI203
aI2030
aI-1126
aI-3088
aI-859
aI-3672
aI2947
aI-2441
aI-306
aI-2564
aI1448
aI226
aI89
aI-1414
aI1408
aI1319
aI-2394
aI-1218
aI-1283
aI3013
aI483
aI1359
aI-1206
aI1062
aI-1989
aI-1173
aI-1948
aI-442
aI948
aI-1041
aI-1327
aI374
aI450
aI-515
aI1317
aI-201
aI-1276
aI539
aI-2219
aI1003
aI593
aI16
aI-1099
aI1096
aI-882
aI1415
aI1465
aI-248
aI1853
aI-192
aI-2599
aI-1660
aI312
aI-56
aI-1501
aI1778
aI427
aI-1715
aI1898
aI410
aI398
aI-527
aI2547
aI916
aI-17
aI-1135
aI1072
aI1007
aI-1372
aI-495
aI-1175
aI-1342
aI-1123
aI-553
aI886
aI-791
aI419
aI-75
aI111
aI-63
aI429
aI135
aI186
aI-39
aI28
aa.