(cfpylll.fplll.integer_matrix
unpickle_IntegerMatrix
p0
(I120
I120
(lp1
I1214
aI366
aI846
aI-214
aI192
aI340
aI-289
aI378
aI-750
aI-691
aI-47
aI166
aI-69
aI179
aI-1061
aI-5
aI-54
aI839
aI-628
aI-216
aI186
aI181
aI46
aI-496
aI-217
aI-402
aI539
aI154
aI-212
aI-80
aI83
aI-722
aI120
aI-57
aI530
aI-381
aI317
aI1553
aI-61
aI754
aI-208
aI309
aI369
aI-873
aI-153
aI250
aI641
aI-359
aI1141
aI824
aI-101
aI-443
aI-130
aI89
aI564
aI-555
aI131
aI-1
aI620
aI340
aI-737
aI1196
aI408
aI-1066
aI86
aI-226
aI814
aI-777
aI1209
aI165
aI484
aI1259
aI776
aI-597
aI847
aI79
aI-660
aI-552
aI-608
aI-765
aI672
aI-327
aI143
aI248
aI-175
aI437
aI530
aI924
aI406
aI65
aI-416
aI-728
aI754
aI-212
aI835
aI655
aI-236
aI-693
aI78
aI-289
aI-157
aI758
aI-770
aI-115
aI-192
aI-199
aI205
aI-988
aI644
aI-493
aI-768
aI278
aI-417
aI659
aI94
aI-93
aI-432
aI-68
aI-109
aI5
aI85
aI103
aI-486
aI652
aI-244
aI-547
aI-356
aI265
aI-113
aI139
aI684
aI-531
aI383
aI126
aI1079
aI306
aI902
aI-392
aI417
aI-395
aI754
aI-146
aI1001
aI58
aI-1270
aI1065
aI-1462
aI93
aI1338
aI248
aI-529
aI454
aI-163
aI-68
aI-349
aI568
aI-6
aI-500
aI622
aI-802
aI-265
aI199
aI937
aI419
aI-609
aI-471
aI47
aI432
aI-34
aI187
aI697
aI-547
aI143
aI-43
aI-1121
aI-987
aI700
aI-673
aI60
aI897
aI998
aI270
aI788
aI161
aI-492
aI675
aI38
aI130
aI-168
aI-415
aI177
aI832
aI85
aI-752
aI-188
aI933
aI-281
aI346
aI-160
aI448
aI705
aI971
aI-1241
aI-263
aI1255
aI11
aI-656
aI-1145
aI344
aI-1097
aI-29
aI622
aI-450
aI-258
aI163
aI-15
aI-58
aI1179
aI-139
aI-731
aI567
aI146
aI-477
aI-169
aI461
aI-167
aI-204
aI-571
aI-464
aI771
aI-178
aI-233
aI736
aI282
aI69
aI-636
aI506
aI446
aI103
aI-4
aI-869
aI510
aI-52
aI356
aI-423
aI1000
aI-35
aI270
aI221
aI555
aI-618
aI-1139
aI46
aI92
aI-579
aI450
aI-626
aI434
aI-348
aI263
aI1029
aI-57
aI-1125
aI-78
aI-234
aI-511
aI384
aI728
aI-89
aI778
aI479
aI219
aI-1001
aI-230
aI663
aI-1067
aI172
aI-351
aI175
aI-162
aI639
aI-342
aI-472
aI-161
aI903
aI348
aI-1112
aI-552
aI-755
aI236
aI-186
aI1088
aI-58
aI528
aI136
aI726
aI-146
aI414
aI-1110
aI674
aI287
aI55
aI-650
aI-300
aI13
aI-234
aI-542
aI-954
aI-17
aI-961
aI980
aI570
aI567
aI1288
aI-179
aI-172
aI299
aI-325
aI-666
aI888
aI-298
aI-587
aI198
aI409
aI21
aI322
aI739
aI936
aI214
aI984
aI-642
aI-953
aI470
aI-369
aI-21
aI171
aI1598
aI-866
aI-133
aI731
aI-607
aI169
aI471
aI283
aI-591
aI209
aI674
aI299
aI-525
aI-851
aI256
aI-441
aI-694
aI-754
aI93
aI407
aI-151
aI-443
aI-11
aI2
aI317
aI-761
aI-16
aI-767
aI264
aI-1101
aI515
aI-626
aI350
aI-221
aI348
aI633
aI201
aI-384
aI132
aI150
aI-295
aI-298
aI162
aI6
aI-1821
aI-225
aI-195
aI625
aI1425
aI-600
aI376
aI-1002
aI-1539
aI159
aI344
aI-856
aI134
aI-544
aI136
aI-647
aI-530
aI-503
aI20
aI639
aI-395
aI353
aI-7
aI15
aI95
aI1277
aI495
aI-1040
aI2007
aI-110
aI-554
aI301
aI-1181
aI-524
aI-145
aI581
aI-449
aI-898
aI812
aI-623
aI-157
aI-114
aI-1266
aI-130
aI-232
aI163
aI-270
aI884
aI1114
aI333
aI-656
aI-683
aI291
aI348
aI-237
aI-879
aI209
aI-1066
aI353
aI-12
aI122
aI-980
aI155
aI-692
aI-1397
aI-814
aI-567
aI609
aI107
aI82
aI1033
aI-59
aI118
aI421
aI-257
aI0
aI-167
aI-544
aI497
aI350
aI956
aI-465
aI-368
aI-314
aI-257
aI-279
aI1468
aI894
aI47
aI-746
aI-728
aI143
aI717
aI-44
aI-395
aI-106
aI-171
aI-237
aI115
aI-12
aI549
aI-279
aI104
aI-1131
aI942
aI-108
aI-357
aI518
aI-108
aI959
aI472
aI68
aI194
aI341
aI274
aI1583
aI-1307
aI-255
aI16
aI455
aI-206
aI-223
aI-479
aI-995
aI1514
aI-26
aI-98
aI-260
aI-988
aI-219
aI31
aI-590
aI52
aI-321
aI-44
aI279
aI-131
aI-1016
aI-324
aI-973
aI-1097
aI48
aI-483
aI-478
aI216
aI-320
aI662
aI785
aI-530
aI-12
aI-732
aI397
aI-797
aI-359
aI994
aI967
aI87
aI-679
aI761
aI-867
aI671
aI-236
aI-205
aI-19
aI325
aI52
aI24
aI935
aI9
aI-92
aI-264
aI-1462
aI662
aI396
aI-237
aI89
aI-4
aI74
aI948
aI-588
aI78
aI-641
aI855
aI-61
aI-724
aI-273
aI1110
aI170
aI195
aI20
aI924
aI972
aI-81
aI43
aI-469
aI-473
aI185
aI809
aI-585
aI290
aI-702
aI-623
aI248
aI-118
aI-1017
aI261
aI-737
aI184
aI-1017
aI-540
aI122
aI606
aI934
aI-476
aI256
aI439
aI-257
aI-155
aI-57
aI1
aI201
aI-545
aI-234
aI783
aI-479
aI497
aI24
aI-820
aI504
aI-57
aI-1294
aI-373
aI869
aI-862
aI-1041
aI-83
aI1150
aI-619
aI-500
aI302
aI1169
aI-116
aI49
aI1308
aI-409
aI381
aI-683
aI-95
aI-288
aI490
aI797
aI550
aI-466
aI49
aI911
aI-32
aI96
aI632
aI541
aI404
aI72
aI51
aI142
aI287
aI536
aI-421
aI-959
aI-485
aI-1085
aI166
aI680
aI-86
aI-4
aI43
aI-457
aI640
aI-724
aI-531
aI-384
aI296
aI-686
aI748
aI-327
aI-530
aI1458
aI163
aI-107
aI-1410
aI-2
aI-142
aI1665
aI-82
aI-179
aI660
aI-336
aI-214
aI-98
aI-740
aI-531
aI841
aI589
aI805
aI549
aI479
aI467
aI10
aI-476
aI77
aI680
aI922
aI551
aI54
aI663
aI-372
aI200
aI-18
aI-1
aI-741
aI558
aI349
aI-84
aI635
aI329
aI-240
aI237
aI294
aI34
aI-571
aI704
aI97
aI362
aI203
aI-531
aI605
aI-467
aI-725
aI296
aI-69
aI76
aI3
aI-391
aI919
aI-1170
aI1050
aI970
aI458
aI-937
aI652
aI7
aI353
aI37
aI-1340
aI75
aI748
aI987
aI155
aI621
aI559
aI76
aI-669
aI-445
aI-261
aI-546
aI27
aI435
aI235
aI-1289
aI227
aI777
aI337
aI-466
aI1024
aI-407
aI675
aI-985
aI731
aI-81
aI-1279
aI-485
aI66
aI-472
aI-527
aI565
aI915
aI-3
aI-956
aI-684
aI631
aI-536
aI710
aI-349
aI-629
aI333
aI-1238
aI158
aI124
aI87
aI16
aI-733
aI-282
aI165
aI-598
aI195
aI344
aI303
aI-72
aI-204
aI-492
aI-1186
aI-505
aI698
aI628
aI-152
aI851
aI-671
aI-459
aI455
aI-978
aI13
aI188
aI-936
aI487
aI-154
aI19
aI373
aI248
aI-851
aI-1692
aI217
aI-451
aI-729
aI-644
aI-427
aI1354
aI-707
aI-102
aI560
aI-201
aI-418
aI14
aI135
aI290
aI820
aI-797
aI-537
aI729
aI-412
aI-426
aI-1067
aI-280
aI350
aI338
aI32
aI-565
aI32
aI-284
aI217
aI141
aI75
aI-1
aI-590
aI217
aI-761
aI1209
aI-13
aI295
aI-380
aI54
aI337
aI-147
aI-893
aI-736
aI1025
aI174
aI372
aI1057
aI691
aI-79
aI1162
aI-720
aI-202
aI-222
aI238
aI1253
aI195
aI591
aI-538
aI-827
aI611
aI-587
aI-1281
aI3
aI-50
aI-351
aI510
aI-391
aI-9
aI-1561
aI-283
aI-109
aI-1279
aI-281
aI891
aI1778
aI391
aI-610
aI-693
aI992
aI-2015
aI984
aI980
aI-883
aI-289
aI-855
aI-946
aI234
aI323
aI-1002
aI2
aI764
aI599
aI-190
aI880
aI136
aI-764
aI203
aI-304
aI85
aI-963
aI-293
aI37
aI-396
aI570
aI-114
aI-1156
aI36
aI957
aI133
aI172
aI175
aI110
aI213
aI-1055
aI-258
aI264
aI-241
aI222
aI-1818
aI425
aI-1235
aI-2066
aI509
aI-382
aI-483
aI46
aI-731
aI226
aI-414
aI-519
aI-178
aI586
aI662
aI1386
aI-487
aI-280
aI299
aI-115
aI-470
aI-1555
aI-503
aI1321
aI219
aI376
aI-541
aI-218
aI-171
aI89
aI-506
aI-30
aI-4
aI-470
aI694
aI-806
aI1186
aI815
aI-408
aI77
aI838
aI329
aI-705
aI-1886
aI1083
aI-316
aI291
aI-905
aI-1087
aI25
aI441
aI1691
aI-111
aI-2036
aI-108
aI484
aI-184
aI-305
aI-664
aI1303
aI-934
aI-64
aI-773
aI-836
aI-574
aI518
aI264
aI576
aI807
aI-879
aI-170
aI-443
aI364
aI-1129
aI-195
aI123
aI501
aI316
aI-332
aI-389
aI497
aI-490
aI-189
aI678
aI-859
aI-48
aI-222
aI875
aI300
aI-509
aI-32
aI113
aI-1100
aI-498
aI133
aI254
aI1299
aI446
aI-195
aI215
aI-740
aI-583
aI301
aI22
aI-866
aI-544
aI-347
aI87
aI-1193
aI73
aI776
aI2
aI-801
aI-816
aI-34
aI-26
aI-308
aI-1220
aI-878
aI-870
aI-296
aI-847
aI-75
aI-201
aI-804
aI-958
aI646
aI-236
aI-1480
aI-286
aI-505
aI228
aI60
aI384
aI754
aI441
aI-1238
aI-487
aI426
aI-747
aI569
aI357
aI320
aI1500
aI439
aI-832
aI-292
aI-142
aI167
aI98
aI-788
aI-108
aI-2
aI-347
aI-1223
aI1160
aI25
aI-744
aI-43
aI-682
aI-759
aI-787
aI-1326
aI-815
aI74
aI99
aI-993
aI-895
aI-217
aI211
aI-1128
aI605
aI92
aI-827
aI993
aI-449
aI-673
aI-123
aI70
aI938
aI271
aI-814
aI-363
aI-409
aI-155
aI911
aI504
aI955
aI-1453
aI177
aI1312
aI-695
aI612
aI723
aI-217
aI66
aI-458
aI-309
aI864
aI276
aI-367
aI-572
aI1040
aI717
aI-119
aI251
aI194
aI631
aI-410
aI-40
aI-194
aI688
aI608
aI-146
aI1192
aI936
aI-492
aI274
aI-704
aI1106
aI769
aI-331
aI2015
aI-1174
aI-1067
aI-384
aI73
aI436
aI47
aI1077
aI-216
aI-29
aI-347
aI199
aI-261
aI881
aI533
aI316
aI119
aI1003
aI989
aI-236
aI417
aI-265
aI1052
aI598
aI-1635
aI1199
aI866
aI-824
aI-546
aI-59
aI140
aI499
aI29
aI520
aI493
aI-96
aI-955
aI534
aI212
aI1234
aI-182
aI394
aI304
aI-394
aI586
aI-44
aI140
aI-316
aI87
aI-72
aI-1
aI-108
aI-1821
aI-547
aI142
aI-468
aI-268
aI29
aI-228
aI248
aI-85
aI-598
aI1253
aI673
aI-815
aI-15
aI-688
aI488
aI-521
aI-98
aI735
aI-626
aI-38
aI1123
aI52
aI761
aI152
aI104
aI-558
aI509
aI-587
aI200
aI-475
aI-392
aI-690
aI-265
aI74
aI-244
aI-1645
aI150
aI-476
aI-1496
aI-524
aI-244
aI1660
aI966
aI-678
aI-77
aI1226
aI-89
aI-130
aI490
aI-670
aI-882
aI375
aI-1828
aI30
aI-710
aI-304
aI-266
aI555
aI758
aI-437
aI158
aI813
aI-756
aI529
aI848
aI643
aI-604
aI-398
aI-5
aI-1124
aI-218
aI-324
aI-58
aI517
aI-525
aI2024
aI159
aI-603
aI278
aI1011
aI-586
aI-776
aI-923
aI-456
aI-1323
aI-557
aI-658
aI-352
aI-561
aI384
aI206
aI-1101
aI53
aI-330
aI-999
aI399
aI-257
aI-317
aI-48
aI479
aI93
aI-587
aI113
aI-13
aI-270
aI464
aI61
aI564
aI627
aI305
aI654
aI-530
aI162
aI-29
aI490
aI-614
aI-179
aI2
aI-81
aI784
aI94
aI-434
aI389
aI-1062
aI104
aI-7
aI-465
aI-101
aI-893
aI-1165
aI486
aI678
aI606
aI1474
aI-165
aI-533
aI1199
aI286
aI286
aI183
aI-41
aI1056
aI40
aI-296
aI-848
aI-956
aI41
aI5
aI-1023
aI-493
aI-91
aI166
aI1362
aI-44
aI-203
aI-760
aI355
aI-637
aI738
aI-695
aI1157
aI140
aI477
aI158
aI-480
aI-50
aI-176
aI-1076
aI480
aI-218
aI-354
aI-208
aI-869
aI-809
aI473
aI-1169
aI-428
aI594
aI1694
aI-318
aI-670
aI110
aI-1192
aI1003
aI-930
aI-59
aI-1144
aI-67
aI193
aI-283
aI920
aI459
aI-1962
aI640
aI705
aI1018
aI-117
aI202
aI15
aI-270
aI-1082
aI219
aI1762
aI-528
aI240
aI-941
aI-284
aI-591
aI-648
aI632
aI-339
aI774
aI979
aI-782
aI1292
aI248
aI-267
aI-315
aI1227
aI-189
aI333
aI187
aI-71
aI-25
aI-5
aI-67
aI-1345
aI-270
aI1470
aI5
aI690
aI-438
aI591
aI-165
aI166
aI102
aI189
aI-14
aI617
aI1288
aI-462
aI301
aI456
aI-258
aI-326
aI-335
aI473
aI-110
aI-789
aI-436
aI56
aI301
aI-931
aI265
aI-1045
aI509
aI1050
aI-624
aI-56
aI-393
aI135
aI1233
aI-530
aI-452
aI223
aI-581
aI-797
aI-96
aI1161
aI376
aI-528
aI348
aI612
aI-290
aI980
aI-198
aI988
aI106
aI767
aI-208
aI-203
aI-460
aI-825
aI394
aI507
aI-427
aI50
aI-731
aI267
aI-19
aI-16
aI-505
aI-548
aI-742
aI495
aI264
aI-721
aI-100
aI-373
aI421
aI-539
aI248
aI295
aI-422
aI-853
aI-552
aI-281
aI-385
aI363
aI560
aI762
aI-502
aI-598
aI394
aI-1000
aI485
aI1286
aI161
aI-1610
aI-924
aI-1397
aI-52
aI-538
aI-501
aI321
aI-107
aI1
aI854
aI-1423
aI-1192
aI-497
aI946
aI457
aI-1209
aI1440
aI-752
aI480
aI743
aI427
aI260
aI-56
aI31
aI265
aI568
aI-328
aI-568
aI-329
aI-77
aI437
aI-445
aI-284
aI196
aI-144
aI395
aI-206
aI54
aI243
aI-9
aI38
aI38
aI1390
aI-246
aI1484
aI-593
aI-637
aI205
aI-894
aI-405
aI-404
aI-532
aI1019
aI-258
aI-1229
aI492
aI-1512
aI749
aI578
aI-201
aI528
aI6
aI51
aI364
aI354
aI-523
aI699
aI-126
aI-178
aI687
aI99
aI-562
aI-294
aI105
aI807
aI-952
aI-34
aI356
aI1073
aI-69
aI267
aI887
aI-206
aI-1859
aI180
aI999
aI1479
aI-174
aI349
aI441
aI470
aI454
aI-1133
aI717
aI777
aI96
aI-486
aI-222
aI-167
aI-390
aI-118
aI477
aI-1130
aI-449
aI-573
aI-768
aI-780
aI-965
aI770
aI-357
aI-156
aI-526
aI1137
aI-20
aI1051
aI625
aI-458
aI-430
aI126
aI-49
aI1054
aI-1085
aI-334
aI375
aI-437
aI-168
aI1572
aI1710
aI657
aI953
aI-218
aI-640
aI-377
aI175
aI60
aI-284
aI1027
aI617
aI17
aI1
aI-803
aI253
aI172
aI775
aI-801
aI59
aI-76
aI-550
aI-827
aI-949
aI342
aI511
aI451
aI-948
aI319
aI1471
aI-1070
aI-422
aI2
aI-7
aI-1427
aI300
aI-551
aI592
aI-633
aI679
aI-269
aI-1078
aI205
aI1585
aI-1064
aI-381
aI370
aI-802
aI458
aI-27
aI51
aI506
aI942
aI161
aI561
aI-161
aI719
aI294
aI1060
aI-371
aI522
aI-294
aI303
aI793
aI396
aI-814
aI-400
aI-381
aI-43
aI-406
aI1067
aI-923
aI1044
aI464
aI-934
aI267
aI-1179
aI1354
aI-63
aI-1263
aI241
aI601
aI-1228
aI308
aI1237
aI303
aI88
aI-250
aI-1690
aI266
aI-247
aI449
aI-831
aI1133
aI81
aI83
aI563
aI490
aI-779
aI144
aI480
aI-893
aI-491
aI-1201
aI525
aI235
aI944
aI-499
aI-567
aI758
aI-534
aI-250
aI176
aI1017
aI-727
aI-631
aI178
aI-359
aI-662
aI-1126
aI896
aI684
aI-214
aI800
aI-28
aI-273
aI-56
aI-750
aI-398
aI-480
aI897
aI-718
aI149
aI-462
aI-912
aI361
aI-141
aI-224
aI-160
aI218
aI157
aI-374
aI-454
aI527
aI563
aI-57
aI-139
aI-232
aI-513
aI43
aI110
aI-542
aI-82
aI7
aI-673
aI-1170
aI308
aI1388
aI208
aI948
aI-560
aI423
aI128
aI-160
aI974
aI1328
aI76
aI-593
aI1081
aI-954
aI338
aI68
aI-781
aI-140
aI802
aI-213
aI170
aI259
aI-1639
aI423
aI-979
aI697
aI1627
aI334
aI1095
aI1789
aI-489
aI-379
aI-1084
aI1927
aI-368
aI-17
aI-315
aI-292
aI909
aI-208
aI279
aI451
aI-383
aI-422
aI-798
aI1140
aI93
aI144
aI580
aI286
aI1115
aI378
aI-966
aI404
aI-1235
aI791
aI164
aI223
aI-488
aI-440
aI527
aI90
aI-435
aI-680
aI-296
aI409
aI939
aI-587
aI806
aI1318
aI-1825
aI616
aI762
aI769
aI-656
aI-209
aI-391
aI702
aI-385
aI1248
aI-1544
aI-1323
aI-208
aI672
aI-1580
aI-711
aI-868
aI182
aI-770
aI-872
aI-462
aI138
aI-212
aI1235
aI-181
aI1593
aI300
aI503
aI-410
aI2
aI-324
aI-145
aI150
aI201
aI-423
aI400
aI190
aI1210
aI-541
aI-697
aI-103
aI-399
aI-342
aI-412
aI-123
aI146
aI-65
aI2
aI-326
aI-577
aI-940
aI58
aI-299
aI-432
aI522
aI-270
aI375
aI1008
aI-182
aI-14
aI-206
aI-597
aI306
aI1026
aI64
aI-850
aI1147
aI115
aI461
aI-443
aI844
aI-1871
aI694
aI-67
aI39
aI163
aI252
aI1211
aI1847
aI454
aI-614
aI-886
aI-583
aI-543
aI-522
aI-1978
aI584
aI-735
aI-1182
aI735
aI-1738
aI642
aI-272
aI-667
aI843
aI123
aI-748
aI36
aI-178
aI739
aI18
aI1166
aI453
aI1921
aI-8
aI571
aI-695
aI-260
aI823
aI-123
aI786
aI660
aI225
aI676
aI-99
aI-180
aI-555
aI-1092
aI-255
aI-1100
aI850
aI-330
aI-114
aI-695
aI-614
aI1165
aI1196
aI53
aI-45
aI-92
aI138
aI641
aI-1549
aI-779
aI5
aI903
aI-266
aI578
aI1187
aI-586
aI-922
aI-565
aI83
aI-909
aI1041
aI502
aI24
aI463
aI-775
aI539
aI491
aI97
aI356
aI1184
aI-236
aI801
aI-815
aI600
aI-366
aI-750
aI616
aI-450
aI169
aI448
aI227
aI-535
aI-262
aI18
aI-769
aI1553
aI-361
aI807
aI-708
aI364
aI640
aI-507
aI659
aI413
aI-43
aI-968
aI-164
aI574
aI-110
aI-919
aI84
aI-325
aI696
aI-686
aI661
aI-246
aI-824
aI1676
aI1300
aI1193
aI163
aI513
aI-615
aI-1269
aI-908
aI292
aI-805
aI1032
aI952
aI-519
aI763
aI-379
aI514
aI1287
aI595
aI-201
aI226
aI1694
aI740
aI-153
aI-389
aI722
aI-1521
aI-149
aI470
aI1055
aI328
aI-748
aI240
aI-319
aI31
aI333
aI-542
aI148
aI43
aI-1201
aI-426
aI261
aI-17
aI-857
aI284
aI-236
aI-992
aI-220
aI287
aI-293
aI84
aI1351
aI-1757
aI-551
aI721
aI-1694
aI-383
aI506
aI736
aI-432
aI508
aI127
aI260
aI119
aI621
aI-865
aI404
aI490
aI-728
aI-357
aI554
aI113
aI-261
aI-698
aI391
aI-1413
aI133
aI-148
aI609
aI953
aI786
aI114
aI612
aI345
aI1138
aI555
aI-283
aI-695
aI602
aI720
aI-449
aI-188
aI-687
aI337
aI-219
aI-210
aI192
aI-9
aI-975
aI-1648
aI-33
aI713
aI-1688
aI39
aI-1187
aI-324
aI540
aI-405
aI355
aI208
aI193
aI-821
aI-1373
aI544
aI-1367
aI166
aI-729
aI1175
aI-428
aI608
aI-1072
aI-1119
aI-1338
aI494
aI890
aI327
aI-69
aI795
aI431
aI-232
aI-501
aI-906
aI308
aI-1317
aI101
aI96
aI-548
aI-727
aI377
aI-926
aI-263
aI-593
aI96
aI1009
aI-668
aI-849
aI-259
aI1096
aI-62
aI-244
aI-978
aI1708
aI-484
aI-358
aI-296
aI-156
aI-1263
aI1345
aI-814
aI1463
aI-740
aI-241
aI265
aI-383
aI1012
aI-181
aI598
aI792
aI543
aI-538
aI124
aI324
aI1366
aI-92
aI938
aI1602
aI-477
aI1183
aI218
aI359
aI-50
aI-338
aI-325
aI-546
aI270
aI1296
aI311
aI438
aI-891
aI93
aI226
aI-940
aI238
aI519
aI-65
aI-459
aI402
aI177
aI-261
aI471
aI318
aI118
aI-1223
aI-769
aI303
aI13
aI-91
aI-380
aI-221
aI-901
aI-1693
aI-657
aI453
aI577
aI-66
aI-85
aI-141
aI6
aI-629
aI-663
aI-250
aI-1633
aI243
aI-578
aI980
aI-675
aI-324
aI458
aI-426
aI-1910
aI672
aI32
aI-567
aI1453
aI-146
aI-784
aI420
aI-1231
aI-290
aI866
aI480
aI-382
aI1217
aI-996
aI277
aI-936
aI-1037
aI-439
aI-845
aI282
aI213
aI376
aI1614
aI-1834
aI-416
aI-1060
aI511
aI-429
aI348
aI682
aI-387
aI828
aI725
aI194
aI347
aI-1157
aI-384
aI124
aI-472
aI703
aI-415
aI-215
aI-561
aI-236
aI662
aI-659
aI168
aI621
aI1370
aI-354
aI998
aI-169
aI-729
aI104
aI-802
aI267
aI-1175
aI-173
aI37
aI-1943
aI982
aI1037
aI-1540
aI116
aI164
aI417
aI1301
aI-614
aI-204
aI81
aI118
aI1290
aI1120
aI-530
aI849
aI-549
aI472
aI-4
aI-24
aI943
aI123
aI-1331
aI-38
aI-635
aI1542
aI866
aI89
aI-182
aI585
aI582
aI1150
aI289
aI387
aI155
aI-86
aI-326
aI-1314
aI-967
aI923
aI425
aI1151
aI-359
aI468
aI-210
aI309
aI-60
aI39
aI-2
aI413
aI708
aI135
aI-861
aI-951
aI-387
aI142
aI628
aI-242
aI-1211
aI-1019
aI-1014
aI-368
aI71
aI-1511
aI153
aI833
aI-935
aI-496
aI1189
aI-592
aI652
aI-662
aI-1136
aI756
aI727
aI959
aI301
aI-159
aI-125
aI-437
aI-1072
aI-467
aI-188
aI181
aI-566
aI-101
aI313
aI-881
aI72
aI-822
aI-1088
aI306
aI458
aI215
aI-176
aI592
aI68
aI329
aI39
aI391
aI-157
aI651
aI66
aI1519
aI-767
aI403
aI-690
aI145
aI332
aI389
aI-174
aI-977
aI425
aI330
aI-137
aI1487
aI1051
aI-583
aI564
aI-726
aI-535
aI147
aI550
aI-704
aI-322
aI918
aI228
aI-1301
aI224
aI1497
aI-823
aI1626
aI-445
aI-177
aI818
aI183
aI778
aI417
aI135
aI93
aI387
aI778
aI-256
aI70
aI-149
aI-987
aI-1779
aI-368
aI137
aI-331
aI455
aI-367
aI38
aI-505
aI-393
aI2069
aI430
aI1114
aI-333
aI-223
aI674
aI-387
aI467
aI299
aI376
aI211
aI-43
aI-37
aI5
aI204
aI-683
aI752
aI-534
aI1319
aI108
aI-507
aI-607
aI-456
aI-814
aI-233
aI1186
aI217
aI-489
aI-315
aI607
aI-428
aI1639
aI-1188
aI-1555
aI-934
aI-414
aI-148
aI-360
aI725
aI-1006
aI337
aI-1138
aI-861
aI105
aI1423
aI-634
aI-134
aI-60
aI-233
aI776
aI220
aI1495
aI442
aI-95
aI406
aI752
aI-113
aI506
aI-1472
aI117
aI1583
aI-9
aI389
aI-305
aI-798
aI-586
aI-93
aI-804
aI584
aI497
aI-974
aI594
aI1043
aI-981
aI-1363
aI403
aI632
aI-587
aI66
aI-750
aI-1544
aI-419
aI1554
aI144
aI419
aI1179
aI-121
aI325
aI-110
aI36
aI-487
aI-763
aI717
aI230
aI120
aI194
aI-71
aI64
aI-771
aI-532
aI751
aI-246
aI56
aI258
aI-55
aI483
aI1069
aI444
aI-791
aI682
aI-440
aI722
aI221
aI156
aI-788
aI599
aI-602
aI410
aI-60
aI976
aI245
aI-1663
aI-655
aI8
aI-1624
aI647
aI227
aI845
aI33
aI-303
aI0
aI201
aI-44
aI9
aI-140
aI928
aI-1662
aI541
aI-707
aI-82
aI557
aI232
aI-112
aI561
aI293
aI-584
aI-1022
aI913
aI222
aI-140
aI-183
aI73
aI301
aI1016
aI758
aI735
aI-273
aI66
aI407
aI83
aI-784
aI-866
aI1563
aI382
aI-325
aI-72
aI-297
aI-476
aI-1727
aI161
aI185
aI-1452
aI1278
aI-63
aI-829
aI-1053
aI29
aI-144
aI1396
aI-441
aI-230
aI254
aI-313
aI-824
aI399
aI521
aI-228
aI386
aI-659
aI158
aI1053
aI-116
aI-147
aI648
aI475
aI-941
aI-1346
aI104
aI-278
aI889
aI957
aI209
aI-845
aI-1589
aI-161
aI800
aI804
aI-49
aI711
aI-260
aI-351
aI106
aI-1522
aI-28
aI-242
aI-448
aI939
aI-585
aI206
aI-154
aI-996
aI108
aI115
aI2
aI914
aI-115
aI-181
aI65
aI-626
aI-354
aI475
aI513
aI-74
aI812
aI239
aI-1084
aI-560
aI64
aI-338
aI-66
aI708
aI178
aI-136
aI717
aI-345
aI-800
aI629
aI-1077
aI630
aI125
aI-52
aI315
aI-115
aI-1
aI130
aI-1690
aI328
aI-389
aI-512
aI-177
aI146
aI611
aI-1230
aI-1375
aI-78
aI272
aI372
aI611
aI664
aI-42
aI537
aI-989
aI-484
aI408
aI1627
aI79
aI-135
aI-2091
aI421
aI1613
aI-1454
aI-185
aI-45
aI-495
aI-40
aI888
aI-14
aI38
aI-650
aI-413
aI-890
aI-79
aI845
aI-1443
aI452
aI59
aI1170
aI-6
aI1048
aI-11
aI292
aI344
aI-935
aI-1029
aI-762
aI807
aI167
aI299
aI-112
aI282
aI501
aI-661
aI1658
aI-107
aI2213
aI123
aI168
aI-155
aI1000
aI751
aI-549
aI2095
aI-76
aI286
aI-401
aI-457
aI178
aI492
aI-197
aI980
aI327
aI820
aI-1152
aI-70
aI866
aI890
aI888
aI-291
aI564
aI287
aI-320
aI-459
aI-243
aI-1025
aI756
aI1792
aI974
aI-1988
aI6
aI1347
aI-1515
aI1683
aI-1200
aI-4
aI559
aI-1416
aI156
aI1483
aI906
aI656
aI258
aI73
aI114
aI273
aI-982
aI383
aI2622
aI91
aI1235
aI-857
aI81
aI735
aI-176
aI7
aI295
aI720
aI-387
aI-865
aI-8
aI-328
aI-303
aI-72
aI244
aI197
aI-537
aI109
aI112
aI94
aI-1617
aI651
aI695
aI-1533
aI-78
aI895
aI155
aI185
aI-386
aI-302
aI874
aI-212
aI573
aI794
aI-826
aI-368
aI65
aI-648
aI-592
aI-56
aI796
aI267
aI317
aI131
aI-298
aI-752
aI-840
aI-1088
aI-302
aI1027
aI764
aI-394
aI-981
aI-279
aI-358
aI497
aI267
aI-40
aI-256
aI-180
aI1294
aI467
aI26
aI288
aI260
aI78
aI1281
aI-197
aI-316
aI727
aI444
aI-388
aI396
aI1269
aI-580
aI-271
aI-346
aI-883
aI-70
aI755
aI-1096
aI-880
aI1041
aI243
aI-506
aI-82
aI624
aI-451
aI1095
aI485
aI81
aI730
aI579
aI-12
aI-407
aI380
aI1185
aI395
aI1653
aI-1990
aI300
aI-738
aI-742
aI-356
aI-976
aI1129
aI-1060
aI1336
aI1020
aI256
aI-597
aI-418
aI812
aI-112
aI540
aI370
aI311
aI527
aI225
aI377
aI-185
aI359
aI427
aI40
aI59
aI0
aI324
aI-675
aI-657
aI-1188
aI-384
aI-822
aI1123
aI-81
aI1255
aI-571
aI-1590
aI1723
aI-453
aI87
aI-366
aI228
aI1961
aI-53
aI-229
aI-178
aI225
aI-477
aI1254
aI1014
aI-737
aI-360
aI1344
aI-1052
aI-363
aI-22
aI580
aI-975
aI958
aI-1459
aI117
aI318
aI-762
aI-16
aI-406
aI42
aI-245
aI499
aI-217
aI69
aI466
aI996
aI-787
aI-1049
aI-470
aI-1351
aI-438
aI79
aI544
aI891
aI1130
aI1425
aI100
aI90
aI369
aI-1888
aI698
aI-948
aI-1497
aI1600
aI223
aI1067
aI-1974
aI404
aI857
aI177
aI-640
aI-445
aI353
aI-1062
aI-884
aI-891
aI1143
aI1536
aI-931
aI323
aI-177
aI468
aI-663
aI-27
aI-1193
aI184
aI-507
aI249
aI-535
aI-1808
aI1237
aI410
aI50
aI-898
aI-447
aI-337
aI-1342
aI-390
aI-485
aI100
aI-637
aI178
aI993
aI183
aI938
aI-136
aI327
aI-322
aI890
aI243
aI549
aI-331
aI335
aI906
aI56
aI-472
aI1032
aI-355
aI-192
aI15
aI-1382
aI-533
aI560
aI1066
aI315
aI1584
aI-962
aI158
aI-803
aI53
aI111
aI-888
aI822
aI-377
aI200
aI647
aI1754
aI-447
aI-210
aI-800
aI315
aI926
aI-498
aI-192
aI462
aI-1183
aI-193
aI809
aI843
aI1670
aI-351
aI484
aI-303
aI-413
aI-508
aI474
aI-108
aI-826
aI-775
aI-651
aI-149
aI-910
aI218
aI1621
aI-388
aI-406
aI-531
aI-533
aI741
aI1420
aI-233
aI-762
aI798
aI-810
aI-352
aI1493
aI-257
aI-57
aI-628
aI1043
aI6
aI-258
aI609
aI-143
aI-1038
aI-46
aI239
aI396
aI-672
aI285
aI106
aI-423
aI-702
aI1847
aI-152
aI-182
aI952
aI-1380
aI107
aI777
aI873
aI153
aI286
aI1036
aI1290
aI814
aI-738
aI-415
aI40
aI691
aI-71
aI418
aI380
aI612
aI-640
aI1239
aI-219
aI-680
aI-713
aI621
aI-650
aI180
aI1195
aI698
aI-1462
aI550
aI501
aI11
aI-1238
aI264
aI-503
aI-52
aI-183
aI-382
aI-147
aI-96
aI-54
aI-71
aI12
aI1
aI-453
aI568
aI-326
aI1053
aI207
aI-39
aI-313
aI-1319
aI-629
aI534
aI297
aI221
aI563
aI-24
aI-1001
aI691
aI-311
aI711
aI1134
aI-843
aI665
aI-171
aI373
aI285
aI-452
aI-754
aI-509
aI-875
aI881
aI860
aI-60
aI226
aI-106
aI-1153
aI499
aI591
aI580
aI230
aI1101
aI-41
aI565
aI-1195
aI-350
aI554
aI-858
aI-166
aI-497
aI389
aI-122
aI-816
aI1855
aI-498
aI-383
aI-677
aI-563
aI67
aI690
aI455
aI80
aI2299
aI-607
aI820
aI226
aI34
aI-2116
aI-320
aI529
aI581
aI362
aI-363
aI-842
aI290
aI154
aI-505
aI237
aI13
aI-333
aI-544
aI96
aI819
aI-482
aI-1435
aI-1829
aI-190
aI194
aI-786
aI749
aI236
aI95
aI785
aI-805
aI176
aI-881
aI-243
aI401
aI34
aI565
aI630
aI548
aI472
aI-575
aI-226
aI94
aI972
aI351
aI-710
aI213
aI-205
aI-1513
aI1022
aI26
aI-1070
aI-669
aI-351
aI174
aI156
aI-712
aI392
aI47
aI-12
aI243
aI321
aI-353
aI-343
aI776
aI-705
aI-360
aI1155
aI-385
aI673
aI1053
aI-821
aI-1178
aI873
aI238
aI792
aI-659
aI159
aI-942
aI-215
aI-1201
aI-382
aI-1146
aI-1393
aI966
aI-16
aI-1480
aI1307
aI-285
aI242
aI-275
aI-156
aI-195
aI302
aI296
aI683
aI-1399
aI551
aI-462
aI451
aI1061
aI4
aI414
aI-1698
aI964
aI-473
aI-414
aI800
aI-353
aI-662
aI-1648
aI128
aI-823
aI-548
aI2200
aI657
aI-380
aI742
aI-1945
aI-1247
aI727
aI22
aI-1723
aI54
aI456
aI620
aI-468
aI-1002
aI-1098
aI17
aI-108
aI98
aI104
aI241
aI734
aI-197
aI658
aI-343
aI-1000
aI-872
aI429
aI-503
aI476
aI939
aI-43
aI-268
aI380
aI-290
aI340
aI-289
aI535
aI-426
aI-172
aI1674
aI-338
aI-367
aI1030
aI226
aI-122
aI-1163
aI-699
aI-327
aI30
aI-674
aI-183
aI-644
aI-258
aI76
aI-436
aI-737
aI1250
aI1059
aI-525
aI-339
aI741
aI612
aI262
aI-149
aI-85
aI0
aI-1027
aI-1202
aI-235
aI-464
aI-1925
aI183
aI1102
aI-614
aI1492
aI-59
aI560
aI744
aI-1407
aI-48
aI-512
aI214
aI-733
aI-814
aI-489
aI438
aI126
aI1276
aI-461
aI-184
aI-302
aI-408
aI708
aI294
aI617
aI-684
aI-1251
aI637
aI494
aI-574
aI-320
aI15
aI-415
aI1129
aI4
aI413
aI-251
aI484
aI-15
aI123
aI833
aI-409
aI-599
aI-1401
aI249
aI949
aI-361
aI1164
aI567
aI922
aI-994
aI-162
aI136
aI-53
aI46
aI37
aI-1243
aI-228
aI733
aI-347
aI765
aI-880
aI-155
aI550
aI920
aI637
aI495
aI-226
aI-178
aI-887
aI1772
aI-683
aI673
aI524
aI-10
aI-529
aI83
aI-232
aI154
aI-623
aI-497
aI-366
aI1265
aI282
aI-905
aI38
aI-215
aI-423
aI111
aI-1781
aI-553
aI-130
aI13
aI216
aI956
aI-579
aI1047
aI-269
aI1323
aI459
aI-205
aI-560
aI39
aI108
aI1056
aI137
aI450
aI-674
aI-603
aI-376
aI-347
aI45
aI-669
aI25
aI-205
aI8
aI562
aI236
aI-100
aI153
aI-332
aI-907
aI-279
aI-670
aI759
aI355
aI-434
aI-196
aI-1098
aI-418
aI108
aI334
aI-730
aI1547
aI560
aI-1279
aI-521
aI-831
aI1010
aI794
aI-533
aI-518
aI110
aI-556
aI850
aI-89
aI24
aI-359
aI-234
aI-529
aI494
aI-1386
aI145
aI-428
aI1418
aI132
aI-986
aI1093
aI152
aI176
aI-52
aI291
aI1405
aI1080
aI349
aI227
aI937
aI391
aI184
aI996
aI-658
aI-992
aI168
aI209
aI165
aI6
aI-233
aI20
aI868
aI-168
aI-1238
aI320
aI-25
aI-1831
aI180
aI-424
aI413
aI1175
aI1072
aI-884
aI474
aI736
aI-1320
aI-169
aI-475
aI-1376
aI1427
aI-825
aI-1764
aI138
aI-188
aI-1585
aI1671
aI1099
aI1105
aI388
aI-710
aI-814
aI-18
aI-562
aI789
aI-213
aI1757
aI896
aI914
aI-2212
aI708
aI1332
aI-879
aI-504
aI831
aI-693
aI951
aI-645
aI-112
aI-493
aI-149
aI305
aI-219
aI-119
aI-408
aI407
aI-229
aI-639
aI-156
aI3
aI28
aI-1389
aI307
aI-1062
aI-544
aI-108
aI377
aI-881
aI308
aI-362
aI-178
aI243
aI362
aI-457
aI135
aI568
aI-276
aI-674
aI-243
aI-282
aI-11
aI-1758
aI89
aI-286
aI-15
aI-188
aI-102
aI-789
aI-487
aI-861
aI12
aI632
aI794
aI254
aI-56
aI-404
aI363
aI407
aI631
aI-187
aI-534
aI-210
aI-1870
aI-90
aI-788
aI-57
aI576
aI862
aI-1124
aI-652
aI88
aI-672
aI-917
aI-245
aI376
aI-552
aI-78
aI-1033
aI512
aI-376
aI-818
aI-219
aI1144
aI-717
aI93
aI-35
aI371
aI608
aI421
aI1470
aI-620
aI-457
aI339
aI-593
aI-399
aI-112
aI-729
aI872
aI2105
aI-394
aI-931
aI72
aI-262
aI-124
aI-771
aI475
aI1914
aI531
aI358
aI-80
aI-547
aI1414
aI31
aI-920
aI310
aI38
aI-638
aI832
aI115
aI739
aI720
aI-1349
aI384
aI281
aI495
aI-609
aI-994
aI673
aI919
aI-657
aI518
aI49
aI187
aI836
aI214
aI104
aI218
aI73
aI174
aI-4
aI215
aI949
aI-1401
aI454
aI-1578
aI31
aI1084
aI-2292
aI217
aI596
aI-231
aI566
aI42
aI-1001
aI436
aI-1238
aI809
aI-1133
aI172
aI739
aI-316
aI109
aI93
aI1961
aI-158
aI776
aI-429
aI1066
aI-372
aI-99
aI-6
aI-369
aI-325
aI727
aI-200
aI-1220
aI738
aI-502
aI1066
aI452
aI-361
aI-402
aI218
aI1234
aI199
aI-177
aI307
aI46
aI-759
aI1013
aI2129
aI28
aI-967
aI-627
aI-1947
aI-530
aI650
aI956
aI1280
aI1869
aI727
aI-53
aI1683
aI-471
aI-408
aI-669
aI306
aI761
aI-594
aI-840
aI-2111
aI1164
aI-939
aI-867
aI-149
aI50
aI164
aI-1006
aI614
aI222
aI-604
aI-16
aI534
aI135
aI603
aI-838
aI39
aI-711
aI-384
aI-517
aI-197
aI497
aI2132
aI-2532
aI1057
aI-356
aI-839
aI-798
aI-135
aI543
aI180
aI62
aI-663
aI-23
aI1928
aI-719
aI1204
aI-395
aI280
aI1429
aI-1043
aI-916
aI689
aI526
aI-1003
aI-187
aI536
aI294
aI71
aI-7
aI-21
aI668
aI-334
aI192
aI615
aI-664
aI-1590
aI-677
aI451
aI481
aI518
aI-1460
aI-50
aI194
aI1082
aI41
aI59
aI457
aI510
aI-865
aI-985
aI246
aI551
aI-1395
aI-511
aI567
aI-1098
aI1652
aI1244
aI1084
aI195
aI1070
aI-227
aI337
aI-1604
aI-270
aI906
aI-295
aI-501
aI-1268
aI271
aI1453
aI78
aI251
aI-1342
aI-104
aI909
aI-795
aI441
aI767
aI-1116
aI263
aI1134
aI-531
aI-61
aI-764
aI1040
aI586
aI-1294
aI-171
aI26
aI836
aI862
aI1064
aI635
aI90
aI-513
aI-915
aI-1283
aI323
aI128
aI-219
aI-333
aI-252
aI1260
aI-363
aI-137
aI-689
aI1422
aI-116
aI491
aI-253
aI-1088
aI1037
aI705
aI-966
aI-12
aI-467
aI35
aI600
aI-183
aI-267
aI-1101
aI918
aI-413
aI231
aI1393
aI414
aI-324
aI-237
aI293
aI599
aI-546
aI838
aI-84
aI536
aI269
aI380
aI-390
aI298
aI-697
aI196
aI-417
aI-66
aI-371
aI644
aI-46
aI302
aI121
aI-2
aI-921
aI-470
aI576
aI802
aI690
aI304
aI-1257
aI-594
aI-274
aI242
aI873
aI-724
aI202
aI-615
aI-691
aI965
aI114
aI681
aI95
aI-852
aI61
aI-736
aI375
aI-24
aI710
aI-1349
aI-109
aI-1017
aI579
aI655
aI187
aI964
aI99
aI-399
aI726
aI1098
aI308
aI868
aI82
aI821
aI-815
aI-540
aI138
aI1007
aI-927
aI-1285
aI-716
aI1232
aI-296
aI745
aI1173
aI-1294
aI594
aI-669
aI-4
aI-430
aI-666
aI15
aI-621
aI372
aI-1600
aI468
aI1787
aI234
aI136
aI-869
aI580
aI-600
aI113
aI-24
aI1181
aI540
aI440
aI-548
aI-653
aI788
aI-106
aI-886
aI-414
aI92
aI664
aI-725
aI-879
aI-921
aI-43
aI-946
aI938
aI371
aI962
aI470
aI-1528
aI-1256
aI73
aI-106
aI-434
aI-17
aI616
aI868
aI1145
aI-2145
aI-665
aI2050
aI897
aI-409
aI-772
aI-1161
aI-167
aI-1302
aI-26
aI-449
aI846
aI727
aI-841
aI163
aI-431
aI39
aI-309
aI-224
aI-105
aI10
aI273
aI527
aI1483
aI-75
aI934
aI1396
aI102
aI799
aI-728
aI550
aI-432
aI736
aI1550
aI469
aI-800
aI674
aI-1341
aI269
aI483
aI1035
aI1509
aI-776
aI-299
aI-148
aI2171
aI443
aI434
aI188
aI-2007
aI702
aI-605
aI-1572
aI-659
aI-665
aI2200
aI35
aI158
aI379
aI136
aI675
aI285
aI-895
aI104
aI141
aI1523
aI-617
aI252
aI977
aI226
aI-235
aI980
aI-227
aI-1674
aI-862
aI-450
aI523
aI-1148
aI-368
aI-650
aI1562
aI102
aI737
aI-560
aI-1082
aI-1250
aI113
aI2613
aI-229
aI1003
aI26
aI287
aI-116
aI1664
aI749
aI-1118
aI974
aI-1687
aI-220
aI-394
aI132
aI554
aI-762
aI1185
aI-283
aI-322
aI475
aI1146
aI329
aI-91
aI977
aI145
aI70
aI925
aI361
aI339
aI479
aI-360
aI-2645
aI-411
aI-247
aI-340
aI123
aI-500
aI-146
aI-653
aI533
aI-450
aI134
aI-849
aI-632
aI497
aI1084
aI-1
aI174
aI161
aI337
aI-985
aI-614
aI74
aI-12
aI114
aI1314
aI1248
aI736
aI1127
aI-342
aI1259
aI172
aI924
aI311
aI-460
aI764
aI1091
aI664
aI-648
aI126
aI-912
aI18
aI2142
aI980
aI1094
aI-444
aI-199
aI1014
aI-388
aI681
aI-461
aI382
aI0
aI319
aI630
aI-598
aI-1096
aI-1192
aI1710
aI176
aI265
aI-79
aI6
aI-342
aI1455
aI-1077
aI275
aI1093
aI25
aI1191
aI-403
aI576
aI-36
aI-2346
aI787
aI612
aI-457
aI607
aI333
aI493
aI-514
aI-1244
aI-1329
aI1211
aI-610
aI-538
aI-1406
aI331
aI-1123
aI13
aI-607
aI114
aI-148
aI157
aI124
aI-172
aI-47
aI753
aI-1615
aI-1781
aI179
aI156
aI746
aI1106
aI1419
aI-844
aI-1688
aI50
aI-125
aI100
aI217
aI-303
aI-901
aI543
aI-1329
aI-54
aI-1582
aI1841
aI547
aI-858
aI419
aI-1914
aI646
aI1245
aI1120
aI529
aI-892
aI875
aI61
aI956
aI189
aI1810
aI-1751
aI-670
aI787
aI-1020
aI-1201
aI-807
aI8
aI645
aI-546
aI-516
aI258
aI-19
aI-1567
aI422
aI-395
aI2
aI-315
aI555
aI-1005
aI266
aI171
aI248
aI-752
aI683
aI220
aI856
aI-836
aI-570
aI-132
aI-29
aI-664
aI247
aI984
aI-755
aI-61
aI-119
aI-975
aI-881
aI145
aI326
aI53
aI643
aI-994
aI-693
aI-449
aI3
aI268
aI870
aI603
aI632
aI706
aI-1262
aI1026
aI-216
aI-1044
aI-697
aI797
aI242
aI-1164
aI-705
aI-53
aI-1054
aI581
aI-194
aI-820
aI-107
aI-665
aI542
aI-430
aI1712
aI-858
aI183
aI360
aI1006
aI-2369
aI498
aI-609
aI619
aI-197
aI-107
aI-103
aI-923
aI571
aI-55
aI-298
aI255
aI636
aI1989
aI-1029
aI681
aI-1070
aI695
aI-1091
aI8
aI407
aI674
aI767
aI-360
aI-388
aI148
aI-1252
aI1351
aI275
aI-424
aI119
aI-148
aI269
aI455
aI64
aI503
aI-979
aI1052
aI-1347
aI-794
aI-204
aI846
aI-237
aI273
aI-1306
aI467
aI505
aI1379
aI979
aI-88
aI-522
aI47
aI-13
aI415
aI-67
aI72
aI221
aI-13
aI788
aI854
aI875
aI731
aI361
aI754
aI-182
aI-1008
aI431
aI-78
aI1273
aI610
aI-496
aI-44
aI-291
aI-1919
aI1260
aI-496
aI397
aI-452
aI-102
aI-1194
aI-446
aI1965
aI672
aI80
aI159
aI700
aI-715
aI-923
aI352
aI824
aI431
aI561
aI-751
aI-788
aI-137
aI1040
aI-134
aI586
aI-544
aI-16
aI103
aI-49
aI-620
aI1300
aI-1870
aI-1197
aI1352
aI-144
aI-1288
aI283
aI-549
aI-1274
aI1989
aI2048
aI-458
aI430
aI1167
aI-1776
aI-517
aI-214
aI-617
aI302
aI736
aI318
aI-975
aI69
aI1301
aI496
aI-798
aI-321
aI-1015
aI1028
aI231
aI-2361
aI1679
aI-2646
aI-313
aI-108
aI1397
aI-931
aI-278
aI842
aI-530
aI872
aI5
aI621
aI1543
aI11
aI1593
aI-18
aI1407
aI195
aI-247
aI558
aI-1169
aI124
aI-167
aI690
aI347
aI-87
aI535
aI294
aI700
aI-1514
aI1814
aI1186
aI949
aI-765
aI-1101
aI613
aI61
aI84
aI-1338
aI267
aI-30
aI36
aI222
aI-13
aI731
aI-227
aI205
aI-1284
aI1190
aI524
aI155
aI-89
aI674
aI1056
aI-657
aI-180
aI1175
aI-1691
aI-288
aI1139
aI-32
aI-356
aI53
aI-92
aI940
aI292
aI907
aI-1059
aI285
aI-1117
aI1368
aI-463
aI-1158
aI476
aI158
aI-782
aI127
aI-809
aI163
aI-4
aI-230
aI540
aI97
aI-503
aI-1488
aI760
aI-1420
aI-195
aI-1074
aI-438
aI731
aI-1532
aI1757
aI860
aI276
aI841
aI-468
aI-105
aI-68
aI625
aI235
aI-748
aI1125
aI849
aI-870
aI116
aI1441
aI-387
aI-615
aI116
aI1201
aI-309
aI1690
aI326
aI-357
aI-871
aI249
aI-1002
aI814
aI-61
aI-983
aI-21
aI2276
aI-72
aI-383
aI-446
aI806
aI537
aI-505
aI481
aI480
aI1035
aI810
aI910
aI2121
aI962
aI-541
aI-927
aI-392
aI-362
aI188
aI-994
aI1229
aI519
aI241
aI-1537
aI-175
aI-197
aI-494
aI258
aI-955
aI230
aI-454
aI-111
aI-878
aI-368
aI627
aI206
aI-546
aI-442
aI-596
aI288
aI229
aI-11
aI-1105
aI-1149
aI-415
aI-463
aI-194
aI-734
aI81
aI-960
aI776
aI-219
aI737
aI-22
aI16
aI-1378
aI253
aI-1401
aI376
aI-9
aI-527
aI313
aI524
aI-1038
aI741
aI-1116
aI-670
aI787
aI-358
aI-520
aI965
aI-65
aI-257
aI2188
aI602
aI176
aI-1820
aI-347
aI-10
aI653
aI246
aI-286
aI-620
aI-491
aI-1045
aI-391
aI-1158
aI-375
aI-205
aI239
aI580
aI-1403
aI-286
aI-645
aI647
aI818
aI-615
aI-972
aI-455
aI353
aI-196
aI152
aI-1496
aI-470
aI370
aI777
aI857
aI1291
aI490
aI-539
aI-235
aI896
aI152
aI-817
aI75
aI-1391
aI341
aI458
aI-568
aI1610
aI-83
aI573
aI-581
aI610
aI-323
aI-850
aI48
aI-812
aI-1209
aI258
aI1086
aI39
aI867
aI548
aI-1902
aI496
aI-472
aI247
aI-665
aI1408
aI1508
aI-2427
aI390
aI-1079
aI-290
aI304
aI1925
aI-715
aI-1616
aI585
aI669
aI-299
aI-952
aI-205
aI-748
aI69
aI657
aI-616
aI642
aI983
aI44
aI12
aI591
aI-324
aI-391
aI-414
aI1766
aI-386
aI-917
aI957
aI9
aI-232
aI-879
aI-282
aI28
aI-588
aI-1325
aI250
aI-535
aI-217
aI-822
aI610
aI-159
aI595
aI-2271
aI-794
aI-127
aI-1903
aI-158
aI602
aI-274
aI670
aI27
aI-222
aI-1211
aI675
aI581
aI155
aI-55
aI83
aI-526
aI-807
aI-1057
aI-1858
aI429
aI-641
aI606
aI1077
aI-1503
aI-571
aI2824
aI987
aI-367
aI-186
aI-514
aI803
aI1181
aI-454
aI-57
aI-788
aI-315
aI-17
aI-553
aI112
aI-764
aI-685
aI1794
aI-230
aI264
aI293
aI-640
aI1006
aI863
aI523
aI-436
aI1105
aI170
aI-319
aI663
aI-963
aI-165
aI-651
aI537
aI136
aI1045
aI519
aI1201
aI314
aI-1550
aI89
aI-97
aI1096
aI-290
aI-268
aI1098
aI658
aI734
aI94
aI414
aI-1994
aI-160
aI548
aI333
aI158
aI264
aI-138
aI-1648
aI165
aI15
aI380
aI657
aI-1801
aI-622
aI-101
aI-672
aI-780
aI55
aI123
aI-354
aI-79
aI297
aI-17
aI605
aI155
aI-1919
aI-301
aI904
aI-484
aI428
aI-749
aI1169
aI1693
aI253
aI-1037
aI-834
aI-418
aI479
aI162
aI-498
aI-1178
aI431
aI-380
aI-291
aI392
aI-280
aI719
aI817
aI-536
aI-1486
aI-595
aI-83
aI852
aI59
aI-86
aI-312
aI405
aI-476
aI-497
aI277
aI-1715
aI995
aI211
aI343
aI-460
aI630
aI425
aI-262
aI1
aI-639
aI726
aI-336
aI-1481
aI636
aI1677
aI-1721
aI-1967
aI-912
aI-520
aI1061
aI-980
aI-816
aI918
aI69
aI-419
aI364
aI731
aI141
aI-17
aI290
aI-548
aI-1295
aI-1198
aI-89
aI1417
aI573
aI-150
aI-793
aI485
aI-321
aI-825
aI971
aI-688
aI-1353
aI678
aI330
aI-168
aI-108
aI-68
aI-525
aI-799
aI-136
aI102
aI291
aI828
aI1124
aI-443
aI-861
aI-460
aI1053
aI124
aI684
aI-46
aI1176
aI-907
aI-741
aI-1834
aI244
aI-514
aI697
aI-116
aI-357
aI-520
aI793
aI-127
aI943
aI-247
aI-573
aI-631
aI979
aI235
aI403
aI-24
aI656
aI1160
aI420
aI-1364
aI2849
aI-580
aI-168
aI1149
aI-939
aI3
aI-1886
aI1551
aI180
aI-903
aI866
aI736
aI-196
aI1588
aI211
aI872
aI-1108
aI-771
aI41
aI79
aI424
aI-1391
aI947
aI-273
aI-310
aI1134
aI816
aI-1822
aI178
aI-81
aI46
aI478
aI-810
aI452
aI-1268
aI3
aI-1785
aI-572
aI311
aI-1346
aI842
aI174
aI247
aI262
aI1158
aI1311
aI-118
aI-1686
aI-337
aI893
aI1842
aI1263
aI-1140
aI261
aI969
aI-1016
aI1208
aI-842
aI40
aI-463
aI-635
aI1532
aI-142
aI-346
aI596
aI-10
aI-524
aI314
aI811
aI245
aI306
aI-1003
aI829
aI1317
aI-832
aI-984
aI-595
aI116
aI575
aI-198
aI119
aI91
aI-444
aI236
aI-475
aI-580
aI2054
aI-269
aI775
aI1361
aI994
aI-234
aI-398
aI-984
aI-764
aI519
aI-687
aI128
aI337
aI-209
aI-1015
aI319
aI-19
aI-214
aI-185
aI-444
aI-605
aI179
aI726
aI-213
aI470
aI427
aI-376
aI-513
aI-132
aI-1
aI218
aI1513
aI-541
aI1534
aI167
aI29
aI1456
aI874
aI280
aI-547
aI482
aI238
aI-625
aI382
aI-1093
aI163
aI-454
aI1218
aI687
aI-763
aI1040
aI-405
aI-852
aI145
aI217
aI1326
aI-608
aI109
aI1688
aI195
aI509
aI1636
aI-985
aI-465
aI-527
aI-258
aI-202
aI500
aI534
aI1650
aI-721
aI273
aI-155
aI-1217
aI893
aI-466
aI-761
aI-12
aI-1288
aI-140
aI37
aI-168
aI50
aI999
aI1361
aI999
aI-280
aI1604
aI-2060
aI-268
aI-471
aI-301
aI-1244
aI-709
aI584
aI322
aI609
aI-637
aI-112
aI-704
aI272
aI290
aI902
aI-1087
aI1936
aI-761
aI-898
aI276
aI-2081
aI375
aI687
aI-385
aI356
aI-229
aI-1116
aI283
aI242
aI-128
aI1269
aI450
aI146
aI-1207
aI-1750
aI1565
aI-729
aI-24
aI275
aI-942
aI613
aI-704
aI-281
aI471
aI533
aI319
aI1090
aI639
aI103
aI-433
aI81
aI-2
aI-596
aI-179
aI-686
aI-695
aI771
aI813
aI-1133
aI-44
aI-339
aI14
aI416
aI957
aI1395
aI-170
aI35
aI-354
aI1078
aI-52
aI202
aI1236
aI909
aI-576
aI333
aI-251
aI353
aI1666
aI-915
aI-1075
aI522
aI1537
aI1653
aI-385
aI-317
aI2226
aI285
aI673
aI-1679
aI1573
aI-649
aI1911
aI2451
aI220
aI-1732
aI-389
aI1292
aI583
aI-317
aI-1496
aI410
aI-876
aI760
aI232
aI-197
aI-757
aI-914
aI-556
aI1604
aI296
aI-290
aI-939
aI666
aI77
aI382
aI1075
aI-364
aI1589
aI-1341
aI-210
aI-1569
aI-710
aI-61
aI-159
aI-1275
aI-753
aI246
aI309
aI-208
aI345
aI-1605
aI-1495
aI310
aI-1825
aI-489
aI1028
aI-1125
aI2107
aI-1121
aI-425
aI1167
aI885
aI1564
aI-500
aI-8
aI423
aI907
aI-657
aI452
aI666
aI645
aI2025
aI468
aI-1103
aI-1489
aI3084
aI492
aI-355
aI1561
aI-224
aI1319
aI-498
aI-823
aI1111
aI-1680
aI457
aI-52
aI1373
aI30
aI196
aI-1526
aI1235
aI840
aI-596
aI215
aI-310
aI-736
aI837
aI-717
aI-300
aI44
aI4
aI1159
aI749
aI999
aI-1598
aI1055
aI-63
aI816
aI835
aI-1373
aI-208
aI-205
aI961
aI553
aI1062
aI-640
aI255
aI-295
aI1198
aI-940
aI743
aI-1647
aI186
aI-109
aI-401
aI1187
aI-1106
aI1033
aI946
aI-1595
aI-425
aI17
aI-957
aI-16
aI-444
aI395
aI1427
aI-810
aI867
aI-1373
aI-931
aI-270
aI250
aI-13
aI49
aI595
aI-2133
aI1249
aI387
aI897
aI-679
aI-1109
aI-1341
aI206
aI-982
aI47
aI49
aI-1030
aI921
aI795
aI-1196
aI342
aI-59
aI754
aI-5
aI-490
aI193
aI-87
aI-658
aI68
aI-414
aI-450
aI-62
aI-667
aI563
aI-692
aI-140
aI-1279
aI-203
aI554
aI-1443
aI728
aI-477
aI657
aI182
aI211
aI-375
aI925
aI-180
aI-362
aI735
aI59
aI-623
aI762
aI390
aI10
aI-112
aI212
aI-272
aI-909
aI-955
aI-1727
aI1163
aI-1519
aI-187
aI-704
aI542
aI-241
aI-1183
aI-425
aI576
aI-377
aI1460
aI157
aI508
aI60
aI57
aI149
aI-484
aI-300
aI18
aI-596
aI1017
aI593
aI1430
aI-284
aI369
aI944
aI360
aI98
aI87
aI77
aI283
aI-664
aI340
aI261
aI-873
aI-150
aI1807
aI-547
aI452
aI-50
aI-1519
aI192
aI-238
aI-2642
aI156
aI-210
aI2356
aI1464
aI1669
aI283
aI207
aI-590
aI430
aI-119
aI-379
aI100
aI1056
aI-871
aI-199
aI391
aI176
aI482
aI-839
aI293
aI769
aI267
aI-57
aI-477
aI1582
aI-403
aI-898
aI606
aI1538
aI648
aI-124
aI423
aI874
aI-794
aI654
aI-620
aI116
aI1471
aI-403
aI1621
aI-571
aI-1983
aI-1263
aI810
aI217
aI-332
aI1389
aI-551
aI-730
aI1718
aI-2004
aI-52
aI922
aI184
aI-81
aI677
aI431
aI-559
aI964
aI178
aI-12
aI-455
aI-34
aI26
aI-1204
aI-871
aI-1317
aI-591
aI814
aI-213
aI-763
aI-358
aI-611
aI-230
aI-893
aI-814
aI321
aI129
aI811
aI587
aI29
aI-839
aI186
aI-376
aI-358
aI-1339
aI-1095
aI-2245
aI601
aI336
aI794
aI505
aI-449
aI-115
aI14
aI-1234
aI1593
aI-175
aI214
aI-389
aI-1005
aI952
aI-523
aI647
aI-76
aI104
aI-889
aI-1118
aI1128
aI51
aI979
aI-374
aI73
aI874
aI893
aI-436
aI-876
aI-903
aI922
aI-567
aI-695
aI-1843
aI-515
aI1067
aI678
aI-1737
aI-75
aI728
aI387
aI-621
aI-136
aI-11
aI443
aI-386
aI221
aI472
aI-265
aI-770
aI431
aI186
aI-872
aI-1894
aI-866
aI-1429
aI-1133
aI-218
aI-670
aI-615
aI-57
aI-183
aI91
aI-175
aI-240
aI-1950
aI265
aI-935
aI-806
aI-1857
aI-287
aI-294
aI1193
aI-509
aI-627
aI-1718
aI240
aI-203
aI-435
aI-658
aI-704
aI-129
aI-755
aI551
aI644
aI-793
aI-43
aI-974
aI-442
aI1419
aI1146
aI824
aI265
aI1052
aI-489
aI-257
aI692
aI-238
aI281
aI-1612
aI1021
aI392
aI-56
aI421
aI-342
aI-36
aI-255
aI799
aI-1607
aI609
aI-292
aI-154
aI229
aI-123
aI795
aI14
aI212
aI1539
aI-265
aI-1297
aI-253
aI-16
aI132
aI-61
aI359
aI225
aI-6
aI-1237
aI-90
aI1353
aI-99
aI-1178
aI601
aI-406
aI406
aI407
aI-1347
aI-1845
aI498
aI-765
aI446
aI-38
aI244
aI793
aI-1374
aI686
aI1234
aI-29
aI192
aI-1351
aI-877
aI-616
aI-582
aI1422
aI702
aI99
aI-136
aI261
aI-207
aI-295
aI-11
aI77
aI-527
aI-1135
aI-241
aI-1744
aI-1204
aI792
aI-1282
aI1
aI1640
aI116
aI-64
aI-705
aI8
aI425
aI-289
aI103
aI-323
aI574
aI513
aI597
aI-150
aI-1471
aI273
aI-345
aI-686
aI732
aI-837
aI-396
aI640
aI-1336
aI-269
aI-1601
aI1397
aI-249
aI1421
aI229
aI-573
aI-446
aI1783
aI-2365
aI-1332
aI2653
aI2062
aI1047
aI445
aI-861
aI272
aI-748
aI-787
aI-893
aI726
aI1124
aI857
aI-2879
aI-288
aI-1840
aI-1162
aI1263
aI112
aI1390
aI515
aI-388
aI-425
aI-971
aI1362
aI987
aI462
aI2048
aI459
aI-417
aI398
aI-102
aI632
aI136
aI-379
aI1151
aI-1204
aI-187
aI-585
aI358
aI223
aI278
aI-279
aI-42
aI10
aI762
aI-1409
aI394
aI-295
aI-235
aI443
aI-173
aI-14
aI1753
aI-519
aI-506
aI-207
aI1080
aI319
aI389
aI2537
aI710
aI-18
aI-1121
aI1243
aI41
aI-1341
aI-515
aI-1006
aI533
aI1968
aI-978
aI-161
aI1145
aI1255
aI372
aI-83
aI-1421
aI-2562
aI12
aI-639
aI-665
aI-1028
aI-1536
aI-1295
aI-284
aI844
aI155
aI809
aI-215
aI-44
aI-839
aI560
aI-1157
aI-496
aI675
aI605
aI-521
aI189
aI389
aI1720
aI-225
aI-520
aI-222
aI902
aI260
aI941
aI18
aI109
aI-296
aI-154
aI-1622
aI916
aI1782
aI65
aI-92
aI462
aI-261
aI-189
aI-473
aI-431
aI403
aI899
aI-775
aI1437
aI1063
aI483
aI-1169
aI402
aI-1103
aI711
aI1081
aI-1149
aI-405
aI-1475
aI-1712
aI628
aI-847
aI-1257
aI-314
aI158
aI-922
aI-219
aI-552
aI59
aI-478
aI424
aI729
aI242
aI254
aI-60
aI342
aI94
aI-1690
aI-133
aI-116
aI-157
aI176
aI-360
aI-91
aI19
aI-13
aI-456
aI-191
aI9
aI-803
aI-521
aI-857
aI-734
aI182
aI-853
aI-505
aI-269
aI-420
aI-360
aI-2903
aI-1219
aI589
aI-337
aI1253
aI-170
aI1796
aI-448
aI5
aI631
aI-682
aI-660
aI-258
aI-173
aI192
aI92
aI2
aI1003
aI-185
aI1665
aI482
aI247
aI644
aI637
aI-415
aI87
aI-68
aI-330
aI-215
aI-127
aI351
aI1098
aI-647
aI-2053
aI309
aI-1367
aI935
aI-25
aI-1815
aI177
aI-68
aI-319
aI513
aI109
aI910
aI464
aI-574
aI106
aI-1040
aI-1462
aI705
aI-351
aI-1012
aI1224
aI1151
aI687
aI36
aI-1629
aI-2448
aI970
aI651
aI-968
aI309
aI-151
aI473
aI1757
aI316
aI342
aI-536
aI217
aI-1863
aI356
aI1628
aI942
aI605
aI-460
aI220
aI1674
aI-263
aI827
aI904
aI-713
aI-629
aI187
aI765
aI556
aI86
aI-586
aI249
aI78
aI-426
aI-1410
aI563
aI159
aI-690
aI1155
aI-1170
aI-26
aI1521
aI615
aI2210
aI690
aI984
aI405
aI252
aI47
aI82
aI-268
aI-29
aI6
aI-963
aI280
aI-368
aI519
aI-1317
aI-585
aI-1766
aI1276
aI594
aI232
aI249
aI-416
aI-322
aI-96
aI1234
aI934
aI-62
aI-804
aI435
aI-408
aI217
aI958
aI-515
aI-1231
aI-790
aI1162
aI862
aI963
aI-284
aI-768
aI-786
aI-1102
aI-738
aI245
aI500
aI-331
aI765
aI-817
aI-361
aI-822
aI501
aI642
aI293
aI138
aI-1416
aI1244
aI242
aI-142
aI-129
aI725
aI-478
aI582
aI289
aI82
aI477
aI-369
aI1209
aI261
aI-458
aI433
aI949
aI1520
aI399
aI125
aI654
aI517
aI-66
aI189
aI-615
aI570
aI101
aI-894
aI1161
aI-263
aI-20
aI865
aI1803
aI36
aI837
aI813
aI-207
aI-132
aI-518
aI229
aI-117
aI-595
aI-560
aI-1020
aI-1490
aI27
aI-469
aI812
aI-901
aI549
aI654
aI-1280
aI914
aI-1404
aI-720
aI226
aI549
aI292
aI631
aI891
aI-1116
aI876
aI-467
aI860
aI-1073
aI-277
aI-133
aI-579
aI-627
aI368
aI-363
aI-125
aI143
aI9
aI219
aI-10
aI1193
aI547
aI-385
aI646
aI272
aI190
aI-1306
aI1890
aI-1035
aI-455
aI43
aI-399
aI-434
aI455
aI1403
aI-494
aI-1799
aI830
aI1138
aI-201
aI-84
aI123
aI-1334
aI-961
aI-985
aI473
aI-207
aI92
aI-872
aI-217
aI389
aI-758
aI-88
aI687
aI-260
aI-67
aI1230
aI1072
aI118
aI-1133
aI384
aI-365
aI1099
aI-2320
aI-848
aI836
aI112
aI277
aI284
aI-359
aI-900
aI162
aI-216
aI-169
aI-98
aI69
aI1178
aI356
aI865
aI44
aI1508
aI1348
aI-418
aI-936
aI1256
aI365
aI-900
aI343
aI1053
aI-867
aI-381
aI2266
aI823
aI-1170
aI689
aI1461
aI-486
aI600
aI-273
aI258
aI-1001
aI-459
aI-184
aI-257
aI1112
aI249
aI-34
aI-699
aI-1
aI-625
aI105
aI552
aI246
aI74
aI577
aI-228
aI956
aI296
aI-1258
aI770
aI159
aI-2673
aI-1570
aI-124
aI-604
aI490
aI-72
aI-314
aI-211
aI-67
aI-288
aI-362
aI986
aI578
aI329
aI-423
aI-78
aI440
aI173
aI-15
aI-1330
aI626
aI730
aI1478
aI19
aI26
aI460
aI77
aI318
aI-721
aI1315
aI-255
aI-374
aI895
aI1680
aI286
aI-832
aI1636
aI-419
aI-1290
aI325
aI-1094
aI-663
aI1128
aI-110
aI194
aI-261
aI-1002
aI-535
aI940
aI-1126
aI605
aI19
aI304
aI-180
aI-169
aI-1268
aI-580
aI354
aI1247
aI2200
aI675
aI1249
aI907
aI599
aI313
aI-403
aI597
aI-735
aI-701
aI674
aI1014
aI-239
aI5
aI-437
aI78
aI-596
aI748
aI-838
aI-761
aI-838
aI-1304
aI-295
aI294
aI-472
aI-637
aI-1440
aI-1282
aI844
aI193
aI349
aI1754
aI-425
aI1584
aI-1280
aI137
aI603
aI-2686
aI-1360
aI1421
aI901
aI68
aI424
aI-1058
aI-144
aI-727
aI1086
aI24
aI197
aI-284
aI-1367
aI-1069
aI949
aI1290
aI-1299
aI1002
aI580
aI-421
aI-338
aI-1843
aI536
aI712
aI698
aI89
aI603
aI356
aI1278
aI-569
aI-1034
aI-893
aI-1192
aI299
aI-188
aI-558
aI-392
aI188
aI-453
aI-139
aI-12
aI5
aI630
aI326
aI-551
aI244
aI1689
aI129
aI-1966
aI764
aI335
aI764
aI-40
aI-577
aI406
aI673
aI772
aI-396
aI213
aI-84
aI376
aI987
aI-668
aI381
aI-421
aI-180
aI844
aI13
aI-104
aI503
aI-1063
aI-1104
aI16
aI381
aI-190
aI1280
aI-447
aI731
aI-517
aI-22
aI-301
aI-1173
aI-339
aI-355
aI-58
aI837
aI676
aI112
aI-1093
aI-685
aI329
aI-58
aI-868
aI-398
aI-1151
aI-669
aI483
aI389
aI-555
aI478
aI-445
aI-1768
aI1294
aI-569
aI692
aI154
aI152
aI126
aI375
aI-977
aI-931
aI362
aI-215
aI-1064
aI-1313
aI1644
aI-118
aI-1177
aI140
aI-166
aI1346
aI-536
aI-580
aI1015
aI620
aI992
aI781
aI73
aI194
aI-970
aI-483
aI795
aI1890
aI643
aI412
aI346
aI-790
aI248
aI-14
aI298
aI-493
aI454
aI1462
aI-63
aI303
aI-655
aI-1103
aI-339
aI-868
aI-208
aI-500
aI220
aI742
aI1113
aI942
aI-571
aI-272
aI17
aI156
aI587
aI212
aI-12
aI-210
aI-696
aI-362
aI537
aI533
aI-680
aI-141
aI52
aI623
aI45
aI648
aI1226
aI-513
aI257
aI339
aI-1005
aI-389
aI49
aI904
aI71
aI-371
aI1131
aI1219
aI1156
aI-62
aI-60
aI-67
aI262
aI21
aI271
aI491
aI1442
aI-185
aI572
aI-338
aI2006
aI1063
aI-99
aI-162
aI1158
aI925
aI-1251
aI283
aI202
aI393
aI-284
aI407
aI-358
aI597
aI661
aI-348
aI-622
aI671
aI-290
aI-1313
aI-1215
aI-462
aI12
aI-872
aI212
aI-827
aI-1141
aI1162
aI647
aI1081
aI-1256
aI1162
aI76
aI356
aI164
aI1077
aI114
aI416
aI714
aI-493
aI-2008
aI-542
aI768
aI1494
aI-1069
aI-975
aI1538
aI-1276
aI-1535
aI-251
aI-556
aI-1428
aI-1607
aI-1906
aI-82
aI-113
aI-1185
aI-367
aI472
aI82
aI-1123
aI390
aI379
aI912
aI815
aI1630
aI1793
aI938
aI-505
aI-721
aI280
aI-1754
aI-650
aI325
aI790
aI307
aI-280
aI-620
aI177
aI134
aI-77
aI139
aI384
aI33
aI-3
aI-966
aI-189
aI788
aI219
aI-445
aI692
aI-465
aI657
aI-197
aI-15
aI-762
aI387
aI-891
aI-857
aI-2401
aI1582
aI-359
aI597
aI-1058
aI140
aI114
aI1389
aI-130
aI333
aI-1423
aI-783
aI1127
aI-840
aI-112
aI-555
aI-360
aI-1070
aI353
aI-583
aI1729
aI627
aI102
aI2295
aI-967
aI-110
aI-32
aI74
aI708
aI-702
aI-531
aI600
aI-1740
aI-902
aI-628
aI575
aI340
aI77
aI745
aI-418
aI1322
aI444
aI114
aI-965
aI1520
aI993
aI-1106
aI1476
aI37
aI-422
aI825
aI-898
aI-849
aI301
aI2103
aI553
aI795
aI-1037
aI419
aI244
aI961
aI-535
aI1598
aI-314
aI-1843
aI737
aI85
aI-491
aI319
aI-1050
aI-337
aI727
aI457
aI845
aI235
aI215
aI1112
aI1217
aI-198
aI-787
aI-716
aI-1127
aI-81
aI676
aI493
aI-383
aI-1044
aI-78
aI1492
aI-111
aI-1256
aI-1454
aI294
aI-1020
aI-30
aI-382
aI-6
aI-8
aI-1856
aI506
aI-139
aI-667
aI197
aI157
aI-24
aI3
aI348
aI-24
aI-819
aI-386
aI-443
aI-501
aI1479
aI52
aI-665
aI-473
aI-327
aI-342
aI-1040
aI676
aI-1158
aI-1089
aI778
aI74
aI636
aI-2150
aI-676
aI-244
aI1017
aI-2064
aI-1986
aI13
aI426
aI-498
aI-567
aI220
aI-585
aI633
aI945
aI726
aI609
aI-61
aI-1104
aI734
aI719
aI667
aI1800
aI977
aI-417
aI-147
aI331
aI-341
aI1192
aI241
aI-319
aI-1201
aI504
aI256
aI1470
aI61
aI2210
aI-1755
aI1201
aI301
aI580
aI-377
aI179
aI465
aI164
aI868
aI125
aI196
aI912
aI-505
aI-168
aI1089
aI-734
aI-321
aI-780
aI701
aI-17
aI-690
aI-1149
aI-440
aI324
aI-1133
aI423
aI1036
aI674
aI1355
aI1265
aI441
aI-157
aI511
aI228
aI739
aI1514
aI30
aI351
aI-668
aI696
aI227
aI54
aI336
aI408
aI581
aI51
aI-87
aI71
aI-115
aI1628
aI496
aI104
aI808
aI2353
aI253
aI-109
aI413
aI-191
aI1482
aI191
aI-224
aI244
aI4
aI103
aI-2
aI1726
aI-302
aI-405
aI-1692
aI884
aI-1256
aI716
aI-977
aI192
aI1003
aI773
aI714
aI-763
aI743
aI518
aI923
aI-274
aI590
aI-1276
aI-527
aI213
aI1152
aI440
aI-231
aI372
aI-216
aI-1577
aI-395
aI18
aI-1488
aI-42
aI-649
aI-420
aI128
aI-1172
aI583
aI1443
aI263
aI1356
aI-643
aI-82
aI-1042
aI-617
aI1224
aI395
aI324
aI-270
aI61
aI857
aI-2085
aI-897
aI395
aI-914
aI-796
aI-816
aI-848
aI715
aI-494
aI1363
aI993
aI1466
aI-807
aI151
aI123
aI-118
aI584
aI-537
aI952
aI527
aI-392
aI-157
aI696
aI468
aI284
aI-518
aI-658
aI-909
aI-251
aI509
aI-571
aI-148
aI354
aI-892
aI210
aI661
aI961
aI1129
aI-1634
aI-360
aI-537
aI1511
aI2752
aI651
aI-1110
aI-573
aI765
aI241
aI2321
aI68
aI66
aI1036
aI-330
aI-1347
aI166
aI1431
aI-438
aI-233
aI-1557
aI-685
aI393
aI-1095
aI895
aI1069
aI684
aI953
aI-1199
aI849
aI1350
aI59
aI-1
aI378
aI-155
aI-326
aI-1312
aI1272
aI-1604
aI696
aI568
aI-974
aI-1145
aI142
aI-617
aI150
aI326
aI179
aI-740
aI299
aI1018
aI-1878
aI-1109
aI-794
aI372
aI-632
aI-855
aI757
aI-1680
aI-39
aI527
aI-841
aI147
aI-958
aI-372
aI-465
aI1063
aI-374
aI301
aI-1351
aI1051
aI351
aI437
aI734
aI-93
aI494
aI-289
aI851
aI943
aI318
aI-1302
aI2586
aI-158
aI-1281
aI-859
aI-207
aI-326
aI1299
aI-185
aI210
aI857
aI89
aI-1149
aI263
aI-353
aI392
aI55
aI178
aI100
aI-1853
aI108
aI-85
aI274
aI-1592
aI366
aI-564
aI798
aI343
aI-1179
aI1686
aI-554
aI-369
aI-807
aI1141
aI46
aI-473
aI588
aI1226
aI520
aI-305
aI-380
aI-158
aI298
aI394
aI-1713
aI602
aI936
aI-395
aI370
aI-388
aI88
aI-72
aI-1163
aI421
aI242
aI1325
aI1448
aI688
aI307
aI714
aI-506
aI-369
aI-1384
aI-564
aI663
aI646
aI-420
aI817
aI325
aI-598
aI317
aI91
aI-7
aI-89
aI-305
aI-1075
aI-264
aI-518
aI-486
aI606
aI-2308
aI-178
aI660
aI-1273
aI1396
aI-1387
aI-577
aI-1394
aI-610
aI-57
aI-277
aI279
aI-608
aI5
aI60
aI358
aI509
aI1762
aI58
aI51
aI272
aI1197
aI483
aI338
aI-1137
aI-352
aI-2
aI-1242
aI-268
aI1077
aI-757
aI1041
aI751
aI-1763
aI-1266
aI-916
aI560
aI-336
aI223
aI1718
aI359
aI76
aI201
aI1123
aI-758
aI-1352
aI86
aI384
aI483
aI518
aI-4
aI31
aI48
aI-682
aI169
aI-57
aI216
aI-211
aI-443
aI1224
aI364
aI-379
aI122
aI-1619
aI-109
aI1111
aI-596
aI571
aI-995
aI475
aI-21
aI796
aI-930
aI320
aI201
aI194
aI497
aI-1562
aI183
aI955
aI813
aI-84
aI262
aI-99
aI664
aI1430
aI344
aI448
aI-8
aI-1234
aI-873
aI-320
aI315
aI-907
aI383
aI1007
aI542
aI456
aI-48
aI1549
aI-161
aI166
aI511
aI-348
aI219
aI-657
aI143
aI-54
aI1197
aI-160
aI-318
aI-102
aI2
aI-29
aI138
aI45
aI1887
aI-198
aI771
aI-662
aI-291
aI-590
aI985
aI-169
aI-26
aI266
aI737
aI-658
aI-1637
aI486
aI365
aI728
aI620
aI1890
aI70
aI-421
aI1292
aI-214
aI-272
aI-1174
aI922
aI836
aI983
aI152
aI577
aI-282
aI675
aI-1154
aI-148
aI964
aI-596
aI2224
aI-713
aI-878
aI-1113
aI-387
aI-750
aI284
aI-899
aI-1493
aI160
aI-1134
aI-482
aI-256
aI-379
aI-741
aI-354
aI-546
aI1080
aI-112
aI-19
aI-1057
aI143
aI693
aI-235
aI-1542
aI934
aI420
aI303
aI170
aI-233
aI-675
aI-1004
aI1076
aI-83
aI175
aI893
aI693
aI-299
aI274
aI-589
aI-944
aI775
aI-483
aI448
aI513
aI848
aI767
aI1025
aI1525
aI1530
aI530
aI1085
aI1475
aI556
aI400
aI-1083
aI-352
aI1002
aI-1052
aI991
aI-979
aI644
aI-891
aI-1343
aI695
aI396
aI-976
aI235
aI-1013
aI-893
aI317
aI863
aI1244
aI-88
aI886
aI-918
aI327
aI-74
aI-87
aI309
aI30
aI-2
aI339
aI1251
aI681
aI81
aI1299
aI-121
aI-708
aI979
aI-471
aI1489
aI296
aI278
aI-95
aI-678
aI2191
aI267
aI-69
aI1321
aI1252
aI-168
aI-769
aI-50
aI-207
aI1212
aI-623
aI-586
aI645
aI833
aI-219
aI51
aI-524
aI-1654
aI1065
aI362
aI-176
aI-352
aI-28
aI-1478
aI-306
aI515
aI-983
aI634
aI153
aI-802
aI-1166
aI17
aI1098
aI1598
aI-232
aI459
aI-931
aI280
aI485
aI445
aI244
aI189
aI723
aI-895
aI-438
aI-682
aI453
aI-1180
aI-576
aI315
aI-609
aI400
aI-916
aI-601
aI-1322
aI642
aI-539
aI-789
aI-356
aI-1021
aI1132
aI575
aI918
aI-589
aI901
aI-484
aI-471
aI-1139
aI-327
aI1009
aI-92
aI-420
aI624
aI869
aI-613
aI-668
aI1183
aI1484
aI-1344
aI1941
aI-11
aI-692
aI-71
aI-1331
aI-361
aI-901
aI-829
aI-1095
aI-473
aI-449
aI-1161
aI97
aI-853
aI-141
aI-1579
aI-384
aI185
aI-113
aI-101
aI-343
aI-215
aI235
aI127
aI-440
aI-19
aI1
aI117
aI-1344
aI-145
aI249
aI-254
aI241
aI955
aI-612
aI-616
aI-1174
aI-832
aI311
aI-691
aI-154
aI-1706
aI-987
aI652
aI46
aI-1130
aI-892
aI-375
aI475
aI-647
aI14
aI187
aI-389
aI548
aI-33
aI-182
aI-183
aI-731
aI733
aI-495
aI170
aI-441
aI-214
aI118
aI2615
aI-450
aI462
aI401
aI-334
aI-7
aI-1292
aI664
aI453
aI-821
aI-152
aI408
aI-615
aI-40
aI-134
aI677
aI-481
aI1001
aI604
aI1145
aI1301
aI-258
aI-107
aI-1386
aI516
aI-344
aI-137
aI1756
aI-339
aI-405
aI115
aI-505
aI1536
aI-1980
aI249
aI-844
aI-520
aI2714
aI-156
aI253
aI-270
aI-788
aI-989
aI873
aI-266
aI1082
aI960
aI1187
aI1418
aI-357
aI-393
aI1337
aI1403
aI-232
aI787
aI-210
aI-206
aI-409
aI-244
aI-1028
aI-1616
aI225
aI-672
aI16
aI-2370
aI1420
aI2324
aI800
aI-433
aI168
aI1042
aI1898
aI-562
aI-73
aI318
aI-656
aI570
aI70
aI546
aI-1141
aI230
aI158
aI-19
aI402
aI-354
aI2709
aI-93
aI-468
aI243
aI931
aI893
aI-878
aI-875
aI-193
aI967
aI504
aI-411
aI362
aI1068
aI-59
aI-31
aI334
aI-98
aI1682
aI647
aI-478
aI901
aI-87
aI-995
aI694
aI1439
aI1039
aI98
aI-381
aI-454
aI-504
aI-943
aI1004
aI-183
aI-135
aI228
aI-1289
aI-295
aI448
aI-311
aI-195
aI33
aI56
aI-48
aI-12
aI116
aI521
aI198
aI-2
aI288
aI-171
aI1046
aI-1186
aI576
aI-391
aI262
aI-1004
aI870
aI427
aI-253
aI779
aI-1953
aI-1977
aI-229
aI-531
aI87
aI574
aI293
aI-468
aI-320
aI-150
aI-270
aI756
aI138
aI589
aI1229
aI1029
aI-885
aI707
aI-300
aI-955
aI280
aI-471
aI2095
aI1894
aI939
aI-1679
aI1047
aI-1421
aI-319
aI-633
aI-108
aI1510
aI374
aI574
aI-1321
aI-990
aI-74
aI-77
aI-717
aI1049
aI1536
aI-1091
aI482
aI450
aI714
aI-800
aI134
aI506
aI-942
aI-182
aI-66
aI-33
aI354
aI-1309
aI-545
aI-115
aI-3
aI-460
aI969
aI255
aI924
aI25
aI-589
aI1969
aI294
aI-1234
aI285
aI475
aI503
aI223
aI879
aI625
aI503
aI-1351
aI228
aI2475
aI1184
aI1055
aI150
aI250
aI890
aI-795
aI809
aI652
aI-1229
aI695
aI-568
aI-1254
aI-520
aI1497
aI-689
aI913
aI295
aI-207
aI-398
aI-1034
aI373
aI477
aI-362
aI-490
aI539
aI1194
aI-329
aI-1376
aI1941
aI-2513
aI-1295
aI1630
aI692
aI-377
aI431
aI647
aI268
aI35
aI-884
aI278
aI960
aI-769
aI303
aI817
aI-511
aI-651
aI707
aI1579
aI-1434
aI-38
aI-389
aI-628
aI-264
aI727
aI265
aI-771
aI-1404
aI68
aI29
aI-452
aI80
aI239
aI-524
aI202
aI-1547
aI552
aI856
aI183
aI381
aI43
aI99
aI-34
aI506
aI-1214
aI28
aI113
aI-740
aI1733
aI3
aI-96
aI1037
aI526
aI402
aI-839
aI28
aI-590
aI268
aI76
aI1862
aI-335
aI-540
aI1604
aI-821
aI-1007
aI-478
aI-189
aI98
aI-334
aI-853
aI-101
aI-8
aI784
aI-496
aI-769
aI809
aI-1879
aI-251
aI1589
aI-185
aI-262
aI-1720
aI1506
aI716
aI-688
aI770
aI-1437
aI-697
aI529
aI-282
aI578
aI442
aI-855
aI112
aI602
aI-548
aI725
aI681
aI764
aI-2081
aI-912
aI-341
aI527
aI91
aI176
aI-547
aI533
aI-978
aI-390
aI-1106
aI1023
aI1685
aI-890
aI-563
aI-370
aI2056
aI-189
aI181
aI-114
aI-495
aI994
aI104
aI-138
aI-1035
aI-1262
aI205
aI4
aI372
aI419
aI-337
aI27
aI643
aI-958
aI-56
aI282
aI-131
aI341
aI-102
aI1334
aI956
aI899
aI-49
aI118
aI-303
aI1211
aI-562
aI-644
aI-1008
aI-614
aI516
aI-634
aI44
aI104
aI-333
aI156
aI-729
aI-2198
aI-190
aI-1470
aI192
aI-101
aI-744
aI-254
aI-1617
aI83
aI-1130
aI265
aI-730
aI-1630
aI-733
aI385
aI646
aI481
aI1821
aI717
aI-557
aI694
aI241
aI1327
aI202
aI469
aI120
aI-518
aI-298
aI165
aI458
aI313
aI-197
aI11
aI-457
aI-201
aI9
aI-739
aI984
aI1429
aI1312
aI-1686
aI1630
aI-483
aI597
aI172
aI-772
aI-159
aI494
aI-249
aI-305
aI666
aI131
aI-2155
aI661
aI1836
aI-430
aI87
aI-1627
aI676
aI1214
aI-1329
aI1241
aI1154
aI227
aI-2500
aI-155
aI448
aI-956
aI-505
aI-307
aI1056
aI-1246
aI645
aI841
aI135
aI-118
aI207
aI-5
aI720
aI161
aI-1271
aI-58
aI995
aI-83
aI-1130
aI964
aI838
aI-337
aI-42
aI-614
aI-907
aI1094
aI160
aI-85
aI434
aI35
aI-199
aI1474
aI1418
aI-343
aI689
aI-281
aI554
aI-43
aI1917
aI-169
aI-125
aI1220
aI621
aI40
aI317
aI1172
aI-503
aI-230
aI540
aI359
aI831
aI-969
aI122
aI-212
aI-52
aI-188
aI2174
aI304
aI1340
aI650
aI-624
aI185
aI695
aI-61
aI511
aI-79
aI347
aI-1865
aI161
aI-296
aI177
aI-35
aI-489
aI141
aI-694
aI336
aI1333
aI124
aI64
aI451
aI-179
aI534
aI-326
aI1411
aI-1471
aI367
aI-682
aI-637
aI149
aI-8
aI1523
aI-234
aI408
aI-34
aI-708
aI-69
aI370
aI-1761
aI-1052
aI382
aI434
aI-368
aI-220
aI152
aI49
aI-42
aI531
aI437
aI354
aI-274
aI260
aI-373
aI265
aI-1680
aI-186
aI-1008
aI-1747
aI321
aI211
aI58
aI1776
aI1928
aI1472
aI580
aI-1213
aI-646
aI1142
aI1830
aI312
aI-68
aI746
aI880
aI-166
aI249
aI-1260
aI-1099
aI478
aI-610
aI-1124
aI-1117
aI-984
aI-477
aI673
aI121
aI-230
aI-799
aI965
aI575
aI-130
aI133
aI-283
aI955
aI1869
aI-296
aI1644
aI253
aI16
aI-473
aI-828
aI1308
aI450
aI1020
aI-249
aI-1443
aI523
aI-1333
aI-534
aI405
aI1207
aI-833
aI5
aI81
aI303
aI1724
aI967
aI-1114
aI1571
aI1443
aI532
aI546
aI427
aI560
aI983
aI-727
aI838
aI973
aI-683
aI1425
aI84
aI-757
aI604
aI-454
aI-673
aI758
aI848
aI-247
aI-860
aI-1172
aI1421
aI459
aI-965
aI-792
aI-63
aI1389
aI546
aI-937
aI651
aI896
aI-181
aI28
aI-770
aI-429
aI1064
aI-2577
aI-473
aI-527
aI1258
aI-1236
aI595
aI837
aI2652
aI224
aI-1142
aI1357
aI-365
aI614
aI683
aI-1581
aI158
aI441
aI-20
aI2481
aI-129
aI-477
aI-18
aI731
aI539
aI861
aI1709
aI-360
aI-443
aI-843
aI-87
aI-1527
aI-1210
aI-556
aI-950
aI-360
aI735
aI69
aI709
aI-325
aI-2037
aI394
aI492
aI-338
aI768
aI-886
aI1199
aI119
aI-1228
aI-845
aI-261
aI-1402
aI16
aI-1109
aI-274
aI-825
aI-773
aI405
aI267
aI-1298
aI157
aI-722
aI-1061
aI1492
aI-1256
aI1246
aI-790
aI909
aI-536
aI-576
aI-469
aI-375
aI381
aI-449
aI1332
aI1352
aI2977
aI-1324
aI-617
aI-235
aI-273
aI1508
aI-974
aI52
aI-403
aI-1973
aI-2174
aI88
aI-702
aI893
aI-899
aI-619
aI-245
aI1016
aI1266
aI-142
aI1279
aI756
aI622
aI1307
aI-356
aI956
aI-1155
aI-1830
aI456
aI-88
aI395
aI245
aI571
aI517
aI549
aI50
aI247
aI-130
aI-5
aI119
aI-22
aI5
aI-57
aI1015
aI518
aI2057
aI711
aI484
aI166
aI1515
aI48
aI897
aI363
aI-421
aI1805
aI2201
aI-1647
aI-866
aI2864
aI1361
aI83
aI-1327
aI1066
aI210
aI1708
aI-715
aI938
aI-1117
aI-1327
aI2007
aI182
aI776
aI2066
aI1166
aI-319
aI-129
aI1460
aI276
aI798
aI-263
aI3274
aI-360
aI313
aI1629
aI-1597
aI-490
aI-2056
aI1388
aI-1166
aI-3090
aI-487
aI-420
aI-3585
aI-1766
aI859
aI-34
aI-464
aI241
aI9
aI-2461
aI-2478
aI838
aI2369
aI936
aI356
aI116
aI-484
aI2300
aI2371
aI494
aI-1474
aI464
aI-546
aI-86
aI397
aI-1398
aI-2059
aI-562
aI-2057
aI-251
aI-765
aI2246
aI-1647
aI1201
aI-246
aI478
aI-587
aI869
aI136
aI888
aI324
aI72
aI-1881
aI41
aI149
aI-1820
aI-722
aI978
aI-1614
aI-2835
aI-1662
aI-388
aI2914
aI872
aI-1333
aI57
aI-178
aI-152
aI2132
aI645
aI932
aI361
aI-1006
aI-534
aI622
aI-107
aI164
aI-494
aI144
aI3
aI26
aI-25
aI-165
aI-465
aI-359
aI-797
aI211
aI1297
aI-318
aI-349
aI-1449
aI-2103
aI-933
aI-649
aI-1541
aI1652
aI-1526
aI71
aI949
aI-2201
aI1731
aI554
aI2036
aI-990
aI-346
aI692
aI810
aI7
aI965
aI-2170
aI839
aI-2362
aI-2571
aI1622
aI1028
aI-144
aI737
aI-248
aI-274
aI-1312
aI-776
aI305
aI-1871
aI-3547
aI-734
aI963
aI-616
aI-384
aI279
aI590
aI-512
aI-678
aI1353
aI1845
aI-270
aI-1514
aI386
aI1902
aI1209
aI97
aI2152
aI540
aI-2795
aI-1654
aI1015
aI376
aI476
aI-1575
aI-1015
aI1363
aI-1
aI719
aI-235
aI-379
aI-1052
aI2067
aI-1594
aI673
aI-532
aI759
aI259
aI-1604
aI-112
aI-2251
aI19
aI-780
aI-1304
aI-540
aI-123
aI867
aI-566
aI-236
aI-1244
aI-362
aI-1314
aI-1464
aI1474
aI-352
aI-151
aI906
aI-585
aI1107
aI-762
aI-122
aI1048
aI955
aI583
aI-604
aI-2020
aI388
aI-1804
aI-103
aI635
aI-83
aI-615
aI-784
aI236
aI307
aI-375
aI112
aI-37
aI7
aI1413
aI387
aI-1102
aI871
aI1192
aI993
aI1028
aI-185
aI1063
aI1051
aI1234
aI611
aI246
aI-1087
aI873
aI-1273
aI-1196
aI1471
aI-2074
aI-2046
aI1381
aI735
aI-877
aI-300
aI-1560
aI1151
aI-2184
aI549
aI1012
aI93
aI345
aI2431
aI613
aI911
aI-971
aI-85
aI288
aI-600
aI-1261
aI-484
aI-879
aI-8
aI-1246
aI1065
aI-75
aI1092
aI-1183
aI1425
aI-1372
aI-292
aI-329
aI1483
aI-262
aI1320
aI-1808
aI-632
aI588
aI-725
aI227
aI26
aI-518
aI-2179
aI915
aI-1037
aI407
aI220
aI711
aI-1355
aI476
aI1638
aI546
aI1467
aI-1726
aI-459
aI407
aI-470
aI-844
aI135
aI-1423
aI-978
aI929
aI2494
aI-183
aI1110
aI2013
aI941
aI-1183
aI-262
aI776
aI-673
aI-647
aI35
aI1507
aI-208
aI346
aI1211
aI-419
aI982
aI753
aI1290
aI1195
aI171
aI968
aI-1335
aI1043
aI-209
aI555
aI-542
aI-46
aI-314
aI-813
aI938
aI-274
aI-769
aI-135
aI123
aI-61
aI99
aI-34
aI-1
aI1121
aI652
aI508
aI1535
aI-135
aI-434
aI265
aI-254
aI-1394
aI-624
aI-1501
aI-1158
aI682
aI901
aI-1291
aI15
aI1800
aI802
aI-133
aI-1104
aI1283
aI-922
aI16
aI-3
aI-798
aI-1151
aI-40
aI-143
aI-605
aI699
aI-627
aI-652
aI-255
aI1869
aI-698
aI-974
aI-65
aI-438
aI1525
aI443
aI-368
aI950
aI-693
aI740
aI-264
aI31
aI561
aI-882
aI-1976
aI-514
aI-642
aI3284
aI54
aI-1116
aI75
aI-664
aI1366
aI-1629
aI1067
aI113
aI943
aI1366
aI-552
aI1090
aI588
aI-509
aI-23
aI-1392
aI204
aI-1708
aI-930
aI3
aI-2402
aI769
aI66
aI-367
aI274
aI-31
aI199
aI-522
aI1570
aI541
aI1020
aI2011
aI219
aI2188
aI1380
aI939
aI3019
aI173
aI-644
aI152
aI1253
aI-1902
aI-1066
aI530
aI-857
aI187
aI-222
aI634
aI950
aI-769
aI-898
aI-1135
aI208
aI2086
aI468
aI181
aI-189
aI-142
aI-137
aI518
aI1030
aI-42
aI64
aI-401
aI294
aI197
aI62
aI2
aI-58
aI-1475
aI-84
aI-1055
aI438
aI-380
aI140
aI1076
aI642
aI-1165
aI1440
aI385
aI90
aI1031
aI-1263
aI1893
aI1145
aI-1552
aI1165
aI1010
aI-1136
aI1569
aI-725
aI-904
aI207
aI740
aI14
aI-1088
aI-2051
aI1767
aI-1331
aI-707
aI560
aI-2167
aI60
aI864
aI261
aI139
aI-336
aI1
aI104
aI427
aI658
aI-16
aI1382
aI-226
aI-995
aI-1659
aI567
aI-2747
aI-683
aI-33
aI-854
aI-899
aI487
aI1256
aI1612
aI-2686
aI-717
aI230
aI-1164
aI461
aI-119
aI478
aI636
aI-1166
aI-605
aI1596
aI-519
aI-362
aI428
aI-1894
aI623
aI659
aI302
aI-353
aI1016
aI-1102
aI706
aI-633
aI2352
aI1036
aI819
aI1316
aI76
aI-124
aI-97
aI-1222
aI-2139
aI120
aI403
aI1475
aI-2073
aI1297
aI649
aI-220
aI-1169
aI-1068
aI-468
aI400
aI-34
aI193
aI462
aI-1141
aI-1076
aI-495
aI692
aI-569
aI-273
aI13
aI-625
aI1493
aI-179
aI241
aI128
aI37
aI157
aI186
aI-53
aI-21
aI-163
aI145
aI-860
aI-366
aI-212
aI-1884
aI781
aI-710
aI-1412
aI-844
aI-346
aI-1492
aI-432
aI1006
aI764
aI-944
aI227
aI997
aI1609
aI976
aI-462
aI-952
aI-551
aI1441
aI1412
aI1502
aI-467
aI-305
aI2
aI514
aI600
aI-1443
aI1203
aI113
aI968
aI585
aI-802
aI850
aI1498
aI945
aI1382
aI-1010
aI409
aI-102
aI1591
aI1029
aI379
aI-1772
aI1514
aI-1637
aI-390
aI-1638
aI912
aI496
aI2812
aI604
aI-475
aI-824
aI1418
aI-204
aI332
aI-996
aI35
aI-1250
aI-325
aI-1121
aI-1715
aI1207
aI176
aI-356
aI-2411
aI-1713
aI-259
aI2589
aI-2072
aI-1199
aI2444
aI-359
aI-130
aI1478
aI434
aI-1270
aI-2263
aI-23
aI901
aI392
aI258
aI-258
aI116
aI-323
aI445
aI-410
aI-1198
aI2644
aI914
aI509
aI1214
aI-370
aI856
aI971
aI-219
aI-1080
aI-681
aI352
aI865
aI-723
aI4370
aI454
aI-495
aI-395
aI135
aI1205
aI72
aI422
aI330
aI462
aI-234
aI117
aI34
aI-5
aI1660
aI200
aI-693
aI-581
aI145
aI-187
aI-63
aI-648
aI-397
aI799
aI-1068
aI-2323
aI-1497
aI286
aI1791
aI1016
aI1469
aI292
aI1653
aI720
aI-1679
aI-526
aI-183
aI-1082
aI868
aI1052
aI1346
aI-1648
aI931
aI443
aI976
aI-216
aI697
aI-1632
aI-636
aI-1662
aI125
aI28
aI-545
aI430
aI-1170
aI1262
aI-1276
aI203
aI753
aI78
aI947
aI-84
aI1217
aI1567
aI1722
aI519
aI624
aI-291
aI2549
aI1722
aI518
aI1083
aI560
aI992
aI-312
aI-228
aI102
aI-57
aI105
aI-548
aI-1257
aI796
aI606
aI1868
aI86
aI1148
aI-542
aI-296
aI1319
aI-2368
aI8
aI1625
aI-498
aI6
aI-464
aI-2757
aI176
aI2587
aI-352
aI-692
aI-767
aI466
aI616
aI150
aI3328
aI-22
aI-1313
aI240
aI-314
aI-788
aI418
aI224
aI689
aI1332
aI681
aI-287
aI766
aI728
aI-444
aI-943
aI-471
aI374
aI126
aI105
aI419
aI-651
aI-3
aI766
aI762
aI-175
aI-125
aI-99
aI0
aI44
aI1035
aI-834
aI-95
aI772
aI-1472
aI-408
aI712
aI-595
aI-532
aI509
aI1887
aI-1420
aI-430
aI2392
aI-2232
aI-891
aI1412
aI-1422
aI1103
aI2290
aI789
aI161
aI647
aI196
aI467
aI514
aI404
aI-632
aI707
aI-1932
aI-482
aI-1553
aI1376
aI-828
aI1083
aI-690
aI-1190
aI687
aI2266
aI740
aI-1704
aI-639
aI160
aI1516
aI398
aI-1353
aI298
aI-58
aI1630
aI1014
aI-1167
aI-213
aI334
aI-457
aI113
aI-68
aI195
aI-1467
aI792
aI2150
aI-1781
aI-759
aI-944
aI457
aI-187
aI199
aI-1062
aI1164
aI-317
aI-304
aI-807
aI-1973
aI-484
aI-985
aI179
aI-384
aI-196
aI1180
aI388
aI305
aI-161
aI-3643
aI-1484
aI-96
aI-1314
aI628
aI601
aI287
aI1013
aI-1007
aI-219
aI-544
aI-1331
aI-2354
aI-764
aI-402
aI-661
aI-530
aI1082
aI328
aI-310
aI-1597
aI-1331
aI467
aI-15
aI449
aI-632
aI3
aI-1052
aI-369
aI2158
aI-524
aI527
aI-134
aI236
aI-467
aI-180
aI-11
aI-49
aI-24
aI-218
aI-179
aI1223
aI-527
aI-191
aI2795
aI-2151
aI871
aI1110
aI97
aI288
aI-259
aI1272
aI102
aI318
aI795
aI947
aI-722
aI603
aI-1052
aI2305
aI-941
aI2117
aI1092
aI8
aI-2038
aI-242
aI-497
aI66
aI1817
aI-1328
aI500
aI2946
aI-1013
aI1330
aI-141
aI139
aI-2426
aI2273
aI-1461
aI194
aI-833
aI-663
aI-813
aI-2045
aI1459
aI2904
aI1780
aI-97
aI-1273
aI-771
aI15
aI2577
aI-380
aI398
aI1191
aI157
aI-3602
aI702
aI-207
aI-2027
aI-2197
aI-815
aI-1128
aI-1274
aI-434
aI79
aI-252
aI-1679
aI1026
aI279
aI-1057
aI16
aI-341
aI-934
aI2730
aI-758
aI437
aI830
aI-252
aI632
aI-2354
aI-1261
aI1349
aI1245
aI-1834
aI547
aI1134
aI261
aI-264
aI-588
aI1163
aI-141
aI561
aI642
aI-1574
aI604
aI690
aI158
aI-619
aI204
aI-1277
aI-956
aI-491
aI-405
aI-531
aI-810
aI1354
aI-637
aI277
aI-486
aI-887
aI-341
aI-239
aI50
aI47
aI-100
aI-119
aI0
aI-23
aI-3545
aI-781
aI-6
aI-217
aI-1928
aI1975
aI-75
aI-612
aI-854
aI2014
aI-444
aI252
aI-761
aI-608
aI1706
aI1842
aI1954
aI-535
aI-524
aI-2134
aI615
aI445
aI-835
aI-521
aI330
aI-314
aI1805
aI-958
aI1691
aI-1607
aI667
aI-300
aI-185
aI316
aI-331
aI608
aI1151
aI1431
aI-1914
aI1378
aI-1699
aI4026
aI-2034
aI866
aI-1962
aI445
aI557
aI-524
aI-3357
aI2926
aI829
aI-1679
aI279
aI-1554
aI2165
aI-127
aI130
aI1592
aI286
aI-734
aI-1067
aI-2455
aI1656
aI-282
aI-2547
aI-160
aI1126
aI896
aI-1017
aI1291
aI-489
aI-465
aI876
aI-161
aI933
aI1881
aI614
aI-700
aI1630
aI110
aI110
aI1531
aI210
aI1202
aI-882
aI-1626
aI-1326
aI-1502
aI724
aI-309
aI581
aI795
aI-1335
aI1120
aI6
aI464
aI113
aI1457
aI135
aI378
aI-1395
aI-406
aI814
aI324
aI-1379
aI-607
aI-1212
aI-290
aI-47
aI191
aI-215
aI36
aI-15
aI298
aI-162
aI234
aI-178
aI-286
aI79
aI11
aI-443
aI-721
aI-130
aI-466
aI98
aI-747
aI-968
aI-67
aI-2145
aI-509
aI-1300
aI544
aI-1770
aI-121
aI2200
aI-250
aI1069
aI410
aI2356
aI-552
aI-190
aI-1302
aI-507
aI-1114
aI-744
aI2078
aI991
aI-1892
aI785
aI140
aI168
aI-135
aI780
aI-811
aI-824
aI1292
aI-617
aI1293
aI-4073
aI97
aI-1676
aI1069
aI555
aI330
aI-397
aI-1533
aI-311
aI-163
aI131
aI1000
aI1373
aI370
aI-804
aI-112
aI1761
aI-805
aI1070
aI1076
aI986
aI-2378
aI-1723
aI379
aI1683
aI867
aI-1379
aI-1020
aI-109
aI1309
aI-11
aI1226
aI-39
aI802
aI-610
aI53
aI-37
aI-969
aI1834
aI-1020
aI-85
aI-2490
aI3260
aI1187
aI-280
aI-1805
aI-416
aI-1102
aI-991
aI571
aI748
aI-1878
aI1274
aI56
aI-662
aI2298
aI558
aI1246
aI-1818
aI2316
aI-463
aI1363
aI-1199
aI788
aI1637
aI46
aI-150
aI-319
aI-915
aI-910
aI-438
aI-67
aI249
aI68
aI-194
aI-279
aI-160
aI384
aI14
aI13
aI7
aI4
aI2728
aI266
aI26
aI-1245
aI-330
aI-665
aI260
aI-778
aI3198
aI-553
aI-2118
aI-850
aI1071
aI-1811
aI88
aI-49
aI-716
aI-880
aI-369
aI671
aI2090
aI777
aI-519
aI442
aI475
aI103
aI333
aI1103
aI244
aI2305
aI-921
aI-1112
aI-915
aI-163
aI-416
aI-2063
aI-120
aI-3313
aI1583
aI-370
aI467
aI-365
aI-1354
aI-293
aI1206
aI1106
aI1776
aI-600
aI-682
aI-72
aI337
aI2382
aI151
aI-16
aI-411
aI-603
aI689
aI-580
aI-992
aI-116
aI1202
aI1182
aI-1
aI-648
aI736
aI896
aI391
aI-502
aI249
aI844
aI-1267
aI-1922
aI-72
aI-1511
aI-121
aI-1986
aI-826
aI1697
aI1304
aI-1272
aI588
aI-340
aI1552
aI2032
aI-751
aI189
aI452
aI43
aI-1164
aI1133
aI2180
aI234
aI-170
aI-1819
aI-1638
aI136
aI-67
aI-1203
aI258
aI-262
aI1373
aI522
aI1027
aI509
aI1388
aI1084
aI-903
aI-16
aI-201
aI-344
aI-126
aI-206
aI132
aI-217
aI189
aI226
aI44
aI-166
aI-76
aI27
aI-1726
aI1342
aI-115
aI270
aI-430
aI938
aI-528
aI583
aI-361
aI1460
aI387
aI997
aI-403
aI358
aI3373
aI-585
aI294
aI2420
aI699
aI-208
aI-1144
aI-1223
aI1231
aI-2148
aI371
aI1667
aI-1262
aI1683
aI1067
aI181
aI2343
aI884
aI1748
aI-1175
aI-400
aI2201
aI282
aI1584
aI-233
aI-2473
aI115
aI2356
aI504
aI-360
aI-1486
aI-822
aI265
aI-1076
aI1123
aI664
aI-1616
aI-3587
aI2051
aI2152
aI22
aI-568
aI-19
aI-747
aI-644
aI-1705
aI44
aI486
aI1659
aI116
aI-740
aI1830
aI1239
aI490
aI-1416
aI2462
aI-198
aI1366
aI492
aI-3088
aI631
aI769
aI-224
aI-49
aI-2439
aI835
aI-264
aI-409
aI-1961
aI785
aI1986
aI383
aI-1265
aI-291
aI838
aI-1919
aI2714
aI-948
aI-94
aI1743
aI-827
aI-802
aI-1229
aI995
aI-453
aI-179
aI-551
aI18
aI-316
aI1557
aI-680
aI-972
aI3063
aI374
aI975
aI2477
aI-445
aI-36
aI-202
aI1487
aI-103
aI229
aI-34
aI47
aI15
aI-2
aI109
aI-1150
aI-490
aI-1395
aI1847
aI-488
aI238
aI14
aI-1141
aI-322
aI-496
aI1002
aI-1032
aI-101
aI176
aI-385
aI-581
aI933
aI-1838
aI220
aI-648
aI668
aI1182
aI-632
aI1008
aI-426
aI-1255
aI648
aI-287
aI-617
aI-942
aI581
aI-1305
aI438
aI-703
aI2077
aI-1074
aI-1165
aI-741
aI-159
aI590
aI-1586
aI1165
aI-1706
aI-538
aI499
aI951
aI-1317
aI96
aI-793
aI-218
aI-1550
aI577
aI-644
aI60
aI121
aI-1315
aI2772
aI-368
aI-696
aI62
aI836
aI51
aI1738
aI2344
aI-214
aI800
aI-439
aI1639
aI-1359
aI-1127
aI751
aI218
aI1976
aI-2489
aI306
aI446
aI1179
aI1291
aI624
aI-2071
aI1770
aI224
aI-2608
aI432
aI-1004
aI-1404
aI2100
aI-1616
aI-412
aI150
aI42
aI1186
aI-1028
aI2526
aI1137
aI1662
aI-692
aI470
aI-583
aI-224
aI771
aI-491
aI1085
aI-457
aI-95
aI-1630
aI1146
aI1665
aI30
aI369
aI-544
aI136
aI303
aI397
aI49
aI65
aI163
aI-50
aI15
aI-1314
aI-811
aI-1258
aI-1127
aI-725
aI-336
aI-694
aI-1714
aI-586
aI536
aI-1637
aI506
aI1425
aI1001
aI-1375
aI1792
aI732
aI-3393
aI1469
aI-1972
aI1176
aI108
aI-368
aI280
aI-226
aI-1439
aI1038
aI1755
aI-1581
aI153
aI-565
aI167
aI1787
aI604
aI617
aI-921
aI991
aI444
aI-804
aI-113
aI1212
aI1972
aI338
aI-328
aI-336
aI573
aI1966
aI-504
aI-1496
aI1129
aI-19
aI1748
aI-361
aI-3320
aI2322
aI1630
aI1165
aI150
aI1380
aI335
aI-334
aI603
aI-98
aI1197
aI-1464
aI-282
aI1033
aI317
aI-1210
aI1319
aI96
aI-2138
aI2374
aI2065
aI1054
aI1106
aI661
aI-323
aI3002
aI-417
aI-1057
aI200
aI-823
aI1385
aI-390
aI-2149
aI87
aI646
aI638
aI1767
aI651
aI-570
aI-1201
aI722
aI613
aI1134
aI685
aI403
aI-1347
aI-1070
aI-336
aI-1158
aI-428
aI29
aI-22
aI1373
aI-1814
aI-329
aI-855
aI-645
aI503
aI-973
aI74
aI123
aI219
aI-358
aI108
aI236
aI60
aI12
aI59
aI-1916
aI-645
aI-168
aI1067
aI906
aI-1171
aI-280
aI983
aI-1316
aI-1910
aI651
aI-1586
aI-1559
aI-507
aI-513
aI278
aI-155
aI1334
aI-1279
aI-155
aI424
aI-186
aI-1474
aI-2051
aI-634
aI-1046
aI-1044
aI-379
aI2155
aI-1537
aI1439
aI-165
aI-7
aI-705
aI-1866
aI-1083
aI-3434
aI269
aI185
aI-233
aI-1302
aI-1077
aI-789
aI-588
aI888
aI953
aI260
aI15
aI160
aI2371
aI614
aI-372
aI-532
aI236
aI736
aI270
aI771
aI224
aI55
aI-1759
aI883
aI911
aI473
aI570
aI-8
aI-885
aI1451
aI332
aI1288
aI-493
aI-594
aI-454
aI1427
aI-470
aI-837
aI-1
aI-1314
aI2867
aI-1550
aI-1505
aI2005
aI-38
aI528
aI-1184
aI-1913
aI-727
aI327
aI-2963
aI-139
aI669
aI-170
aI-1119
aI-1062
aI1960
aI408
aI-232
aI376
aI-1075
aI878
aI425
aI1135
aI2266
aI-381
aI1981
aI-599
aI-3194
aI-265
aI-652
aI-800
aI-110
aI-1257
aI-521
aI-1354
aI61
aI41
aI-85
aI-146
aI124
aI-18
aI-2249
aI2229
aI-423
aI481
aI-95
aI-127
aI-26
aI2052
aI-437
aI1662
aI-394
aI214
aI-166
aI170
aI741
aI1752
aI1164
aI-22
aI33
aI-1054
aI1631
aI-2015
aI-1181
aI-770
aI673
aI-340
aI972
aI-260
aI244
aI-1482
aI-578
aI893
aI-2263
aI304
aI1219
aI1780
aI-1180
aI-61
aI-1087
aI1657
aI-2628
aI2091
aI-1444
aI-1117
aI1600
aI-262
aI-2591
aI-434
aI-2272
aI-114
aI1241
aI-123
aI873
aI199
aI613
aI-2251
aI332
aI1095
aI-909
aI-2153
aI1957
aI679
aI35
aI174
aI-89
aI-500
aI2018
aI1252
aI-117
aI-1744
aI-893
aI-771
aI93
aI-207
aI-1432
aI-734
aI-924
aI-1588
aI-1539
aI-623
aI150
aI241
aI971
aI-1248
aI-1114
aI-128
aI-756
aI930
aI-1165
aI-256
aI2128
aI21
aI94
aI553
aI165
aI-625
aI1321
aI-9
aI-60
aI904
aI-410
aI2039
aI1483
aI127
aI-936
aI-1357
aI-114
aI477
aI723
aI725
aI-815
aI605
aI285
aI194
aI-24
aI201
aI4
aI42
aI-120
aI27
aI454
aI730
aI-234
aI1195
aI-1369
aI-2251
aI-298
aI-122
aI-204
aI-124
aI-108
aI-1740
aI-1218
aI94
aI-968
aI-2126
aI531
aI545
aI1980
aI1943
aI-1204
aI-111
aI260
aI-935
aI-238
aI2636
aI266
aI-449
aI1708
aI2755
aI1118
aI-539
aI28
aI510
aI-353
aI-3064
aI-990
aI924
aI363
aI542
aI198
aI218
aI-81
aI-443
aI-266
aI-1643
aI-842
aI-625
aI2038
aI1572
aI345
aI-67
aI-405
aI1142
aI-811
aI-132
aI387
aI1209
aI-1842
aI1680
aI1500
aI2440
aI-487
aI-840
aI146
aI1777
aI-692
aI1426
aI-206
aI436
aI539
aI-1254
aI-356
aI-906
aI1186
aI-1399
aI908
aI1964
aI-1363
aI931
aI-1544
aI-113
aI659
aI-222
aI-1194
aI-232
aI644
aI-1126
aI-75
aI407
aI234
aI9
aI-872
aI1070
aI-1703
aI-467
aI-1968
aI-1827
aI-1723
aI427
aI-428
aI185
aI768
aI181
aI694
aI184
aI1249
aI-970
aI-464
aI1057
aI678
aI-1061
aI-247
aI148
aI98
aI-382
aI84
aI184
aI29
aI3
aI-406
aI-404
aI160
aI1751
aI-900
aI-1076
aI1475
aI498
aI921
aI-436
aI-341
aI-190
aI426
aI-466
aI-563
aI-189
aI-1242
aI-818
aI-343
aI85
aI-890
aI-474
aI-1635
aI475
aI1221
aI-1749
aI-624
aI230
aI-1319
aI-269
aI530
aI-1513
aI94
aI1850
aI1599
aI-1442
aI720
aI393
aI2000
aI1172
aI204
aI237
aI723
aI-288
aI-204
aI-246
aI224
aI1080
aI-1256
aI-143
aI-260
aI308
aI-199
aI-296
aI33
aI1465
aI-577
aI283
aI206
aI2683
aI-462
aI-485
aI1507
aI-177
aI1467
aI717
aI476
aI2143
aI-947
aI173
aI-249
aI-2487
aI268
aI848
aI-238
aI1455
aI-300
aI-841
aI-151
aI1433
aI-1860
aI-497
aI1584
aI-269
aI-851
aI-728
aI1362
aI-1201
aI-137
aI1225
aI-1212
aI521
aI-884
aI-21
aI-1303
aI-584
aI-1098
aI-1918
aI-635
aI-1463
aI325
aI-2416
aI-1815
aI-855
aI975
aI2090
aI-497
aI-541
aI-892
aI-377
aI-2
aI-403
aI450
aI339
aI-83
aI-960
aI-168
aI-33
aI44
aI2
aI1173
aI474
aI-247
aI-65
aI1042
aI1697
aI-638
aI431
aI479
aI-1335
aI-225
aI1123
aI1101
aI668
aI-956
aI830
aI19
aI-1376
aI428
aI743
aI-657
aI-1271
aI-1664
aI136
aI-1498
aI-1631
aI-104
aI311
aI-627
aI-465
aI-1421
aI1801
aI1591
aI-313
aI1128
aI1198
aI793
aI729
aI-985
aI-1706
aI-574
aI-1019
aI566
aI861
aI50
aI-283
aI-1594
aI2172
aI1015
aI-794
aI575
aI-19
aI581
aI1066
aI1196
aI1353
aI489
aI-1717
aI1625
aI265
aI-1557
aI-1649
aI-168
aI-598
aI179
aI-2206
aI-441
aI-666
aI-166
aI1480
aI1384
aI1462
aI-1028
aI-642
aI1091
aI410
aI-1832
aI-1044
aI-898
aI-526
aI79
aI-1423
aI-348
aI3433
aI2215
aI1101
aI-590
aI-1455
aI-20
aI-96
aI-172
aI-125
aI-825
aI-330
aI1309
aI-1884
aI-583
aI372
aI-1341
aI-262
aI-901
aI-962
aI250
aI-804
aI-437
aI-329
aI-524
aI1057
aI-240
aI542
aI-460
aI216
aI-1207
aI122
aI-100
aI-200
aI-191
aI-39
aI-40
aI11
aI937
aI-1394
aI-294
aI-1234
aI-243
aI1792
aI-295
aI-88
aI-999
aI-292
aI1708
aI-633
aI486
aI1381
aI-2700
aI-630
aI1380
aI-2502
aI-325
aI298
aI824
aI1787
aI3676
aI1409
aI-1626
aI-254
aI-94
aI972
aI-430
aI1189
aI55
aI2952
aI707
aI-2677
aI-282
aI587
aI-982
aI693
aI-1575
aI-1728
aI-155
aI-1663
aI1552
aI614
aI-1622
aI-761
aI47
aI202
aI1313
aI834
aI948
aI-1741
aI-1084
aI-2478
aI-1907
aI2709
aI898
aI-433
aI-1231
aI188
aI-531
aI-940
aI-440
aI1245
aI-918
aI-1423
aI-18
aI572
aI421
aI-984
aI664
aI1765
aI-33
aI-665
aI1512
aI195
aI-2213
aI-313
aI1201
aI-555
aI414
aI-737
aI139
aI-2316
aI-399
aI-1252
aI282
aI1744
aI-113
aI999
aI-1129
aI829
aI835
aI-1383
aI-813
aI1586
aI-1041
aI513
aI-1381
aI-962
aI-837
aI260
aI822
aI1104
aI-663
aI-1851
aI-819
aI-210
aI0
aI1220
aI1733
aI-1543
aI227
aI333
aI-35
aI-215
aI-50
aI298
aI7
aI-18
aI-1892
aI-703
aI-40
aI-436
aI-1426
aI-140
aI-506
aI489
aI-421
aI2435
aI749
aI-1205
aI-957
aI-111
aI-689
aI937
aI1256
aI-1122
aI-236
aI969
aI1395
aI89
aI2046
aI778
aI1682
aI989
aI1359
aI-1522
aI291
aI51
aI1719
aI-2458
aI-1041
aI-928
aI1838
aI-865
aI60
aI1211
aI1319
aI2405
aI-222
aI1072
aI-234
aI46
aI335
aI679
aI1386
aI514
aI-842
aI-101
aI1217
aI1182
aI872
aI-791
aI1741
aI1570
aI494
aI1190
aI-376
aI1752
aI-286
aI-1218
aI-1078
aI908
aI-951
aI-568
aI-830
aI828
aI-681
aI-2619
aI-302
aI-1956
aI945
aI1948
aI565
aI1678
aI1066
aI224
aI-1832
aI951
aI1637
aI-1745
aI94
aI-138
aI-1144
aI-1325
aI246
aI-246
aI-23
aI1148
aI1562
aI632
aI-1550
aI1081
aI-495
aI-1515
aI598
aI-621
aI1545
aI425
aI-2787
aI-214
aI-371
aI742
aI-181
aI216
aI-89
aI-223
aI-1343
aI741
aI394
aI671
aI369
aI376
aI-189
aI373
aI-72
aI24
aI-40
aI-53
aI60
aI190
aI-31
aI-404
aI431
aI54
aI-87
aI647
aI-623
aI-2509
aI997
aI-514
aI377
aI1540
aI-921
aI-731
aI-675
aI-2338
aI1218
aI1024
aI-428
aI-248
aI-620
aI-1056
aI537
aI119
aI71
aI-1346
aI1897
aI-568
aI432
aI1129
aI-597
aI-361
aI-1220
aI-655
aI-168
aI868
aI-2382
aI-490
aI536
aI-1942
aI515
aI-611
aI-889
aI-782
aI-597
aI2266
aI283
aI-1557
aI1070
aI-270
aI-358
aI-1029
aI-697
aI774
aI1131
aI1520
aI-436
aI-191
aI-633
aI1052
aI731
aI-406
aI1
aI1045
aI14
aI735
aI-235
aI-689
aI880
aI2832
aI172
aI621
aI276
aI-459
aI-1126
aI951
aI-1545
aI-1329
aI-370
aI694
aI1057
aI-954
aI188
aI234
aI-1262
aI-628
aI-2156
aI655
aI-2659
aI-1402
aI-963
aI875
aI587
aI996
aI-497
aI376
aI-657
aI1813
aI-378
aI1108
aI-958
aI1023
aI-1067
aI-235
aI-549
aI-326
aI336
aI379
aI674
aI-522
aI489
aI-362
aI120
aI111
aI30
aI-1
aI-19
aI29
aI-34
aI79
aI922
aI994
aI1540
aI1946
aI-1390
aI1794
aI60
aI1064
aI-820
aI731
aI1418
aI-422
aI-1504
aI-1399
aI1203
aI2665
aI-1269
aI-1213
aI464
aI-193
aI2067
aI-222
aI306
aI-402
aI-1029
aI728
aI-1179
aI2950
aI1849
aI1969
aI-347
aI562
aI444
aI53
aI-604
aI544
aI758
aI-793
aI-432
aI852
aI-1286
aI-1691
aI-3006
aI1106
aI856
aI283
aI-413
aI-578
aI-302
aI-2273
aI1378
aI1566
aI-361
aI2036
aI-1331
aI-1663
aI208
aI-940
aI572
aI58
aI-1408
aI-228
aI983
aI453
aI1927
aI540
aI718
aI-104
aI-275
aI1082
aI-506
aI383
aI-1100
aI1672
aI-1291
aI-301
aI-1360
aI1919
aI-511
aI2455
aI-1026
aI-400
aI903
aI543
aI0
aI1085
aI1045
aI-260
aI277
aI-36
aI1850
aI231
aI-426
aI-731
aI-1967
aI212
aI-821
aI-558
aI-433
aI1427
aI-955
aI-980
aI-490
aI-1796
aI2303
aI-731
aI677
aI1271
aI-488
aI-103
aI469
aI324
aI-360
aI94
aI-153
aI68
aI-67
aI23
aI-677
aI-2528
aI1027
aI-562
aI1942
aI-41
aI-1410
aI1245
aI691
aI510
aI-83
aI869
aI-517
aI-412
aI-1151
aI147
aI-641
aI-561
aI-209
aI-1159
aI2023
aI800
aI893
aI688
aI-446
aI-2343
aI-220
aI440
aI-794
aI763
aI42
aI1321
aI-404
aI752
aI576
aI7
aI-1049
aI-1533
aI2936
aI794
aI97
aI-1422
aI-371
aI-3069
aI-690
aI338
aI-199
aI-412
aI507
aI1552
aI-111
aI-584
aI-968
aI-1789
aI577
aI361
aI-2518
aI-262
aI-911
aI-101
aI-462
aI-1325
aI356
aI847
aI2300
aI-376
aI331
aI1451
aI408
aI588
aI1559
aI-568
aI1168
aI1408
aI-1551
aI2106
aI-41
aI171
aI2896
aI-155
aI-3133
aI516
aI-444
aI-2833
aI-2318
aI-2575
aI862
aI1263
aI-1251
aI795
aI-1842
aI829
aI1586
aI-1476
aI115
aI1948
aI1819
aI187
aI823
aI-1351
aI1127
aI1193
aI267
aI-1203
aI-1238
aI-982
aI-3888
aI-1926
aI1107
aI-1470
aI1223
aI-583
aI1191
aI-966
aI777
aI-793
aI53
aI181
aI-43
aI0
aI-823
aI-481
aI445
aI1152
aI-360
aI-499
aI-251
aI-526
aI-653
aI2627
aI1476
aI-2043
aI1902
aI1908
aI-710
aI-9
aI421
aI822
aI199
aI-1410
aI812
aI1777
aI2149
aI727
aI972
aI-935
aI-1576
aI329
aI3159
aI-670
aI1391
aI37
aI1489
aI376
aI1069
aI-476
aI680
aI17
aI982
aI-978
aI501
aI995
aI123
aI473
aI-1620
aI2573
aI982
aI-1442
aI234
aI898
aI-1329
aI-1479
aI301
aI-108
aI-263
aI-231
aI-414
aI-1648
aI-98
aI1722
aI1662
aI-2082
aI-1536
aI-88
aI-1708
aI1922
aI211
aI-861
aI28
aI952
aI-29
aI-1753
aI-370
aI1069
aI-1592
aI-87
aI-150
aI-487
aI214
aI2699
aI527
aI-116
aI-907
aI880
aI1326
aI-1814
aI453
aI258
aI1624
aI160
aI-2081
aI1066
aI224
aI448
aI-658
aI1153
aI2000
aI-123
aI-591
aI-233
aI566
aI-1258
aI-1897
aI-115
aI-1824
aI568
aI1265
aI280
aI-879
aI-130
aI158
aI-125
aI293
aI-370
aI343
aI-285
aI78
aI-89
aI-20
aI-6
aI102
aI-1086
aI-856
aI-931
aI1335
aI-546
aI-1150
aI-1329
aI1861
aI2388
aI122
aI1368
aI-2645
aI-723
aI3457
aI-1715
aI-1499
aI2399
aI232
aI-220
aI-154
aI1725
aI119
aI-1577
aI-486
aI769
aI-1288
aI1706
aI1949
aI1033
aI21
aI-1244
aI1453
aI1515
aI-1814
aI543
aI1402
aI-1268
aI-1098
aI-304
aI882
aI769
aI-385
aI-1837
aI-1956
aI853
aI1068
aI-1671
aI396
aI2468
aI-2417
aI-333
aI-72
aI333
aI-437
aI-1952
aI-493
aI1534
aI-802
aI-463
aI-325
aI-915
aI1657
aI730
aI554
aI3345
aI132
aI-1519
aI207
aI3645
aI-680
aI-939
aI486
aI-2465
aI-398
aI1539
aI593
aI1005
aI2143
aI-500
aI-2343
aI2468
aI-600
aI-610
aI-107
aI-3584
aI-850
aI-845
aI-1381
aI-2034
aI-105
aI-476
aI-50
aI-790
aI528
aI2105
aI696
aI-269
aI-253
aI-2109
aI851
aI-925
aI-685
aI-958
aI915
aI6
aI-2404
aI-1351
aI128
aI-670
aI-207
aI6
aI-648
aI-504
aI-320
aI233
aI34
aI-202
aI6
aI6
aI-1410
aI-293
aI157
aI698
aI500
aI577
aI111
aI787
aI-1070
aI2014
aI2127
aI-386
aI-33
aI143
aI1150
aI-668
aI1185
aI1584
aI-673
aI-1638
aI98
aI631
aI-569
aI-612
aI1756
aI1381
aI-578
aI-1570
aI-275
aI672
aI1365
aI1259
aI159
aI1059
aI-560
aI846
aI1255
aI955
aI187
aI1270
aI-880
aI965
aI-3214
aI-1021
aI-2140
aI1609
aI-87
aI85
aI-1487
aI-1522
aI-735
aI-544
aI797
aI80
aI811
aI908
aI381
aI-521
aI1509
aI-1546
aI83
aI-978
aI1002
aI-1772
aI691
aI-447
aI-278
aI1461
aI-215
aI-973
aI-629
aI301
aI-280
aI1415
aI-1393
aI1156
aI2175
aI-1850
aI-265
aI1217
aI293
aI1949
aI-624
aI-94
aI459
aI542
aI79
aI-928
aI1185
aI-241
aI-935
aI436
aI-1131
aI2351
aI-110
aI-760
aI-784
aI1872
aI710
aI2359
aI-703
aI-18
aI261
aI-605
aI-1155
aI-1558
aI1820
aI-201
aI154
aI-39
aI-458
aI1499
aI986
aI316
aI-383
aI33
aI-194
aI158
aI23
aI25
aI1310
aI1838
aI-785
aI-1564
aI1834
aI836
aI204
aI30
aI-1178
aI-503
aI334
aI-1250
aI-65
aI1594
aI1654
aI-585
aI384
aI1809
aI202
aI-373
aI1598
aI-1589
aI218
aI-76
aI320
aI31
aI-1595
aI-895
aI3176
aI-532
aI-702
aI1371
aI833
aI253
aI-1511
aI1764
aI1288
aI-1112
aI-3009
aI-1017
aI53
aI-2079
aI-946
aI-597
aI-576
aI329
aI-60
aI86
aI47
aI-2019
aI-122
aI360
aI11
aI561
aI-37
aI-971
aI1843
aI-637
aI1441
aI-1771
aI750
aI-670
aI-532
aI-962
aI-663
aI2597
aI1361
aI-1464
aI1491
aI639
aI-296
aI1909
aI-1719
aI-712
aI-1043
aI-153
aI-1725
aI-252
aI-1409
aI-1792
aI1258
aI1841
aI698
aI1406
aI2858
aI319
aI-2168
aI-343
aI887
aI-1806
aI-979
aI-1114
aI274
aI1208
aI1293
aI1074
aI730
aI1315
aI-859
aI1126
aI213
aI-281
aI-1445
aI-442
aI42
aI-1165
aI734
aI629
aI318
aI1026
aI-943
aI793
aI-338
aI8
aI-314
aI521
aI121
aI152
aI-25
aI-49
aI1246
aI281
aI298
aI-600
aI-155
aI37
aI-1116
aI1305
aI-808
aI-1868
aI-93
aI-962
aI1163
aI-375
aI672
aI-467
aI816
aI-667
aI-942
aI-18
aI1656
aI-907
aI318
aI69
aI242
aI154
aI1321
aI-1470
aI686
aI900
aI-340
aI590
aI1515
aI1068
aI1641
aI1000
aI-398
aI424
aI-910
aI-452
aI-410
aI-1111
aI-61
aI518
aI-324
aI436
aI1262
aI2899
aI-248
aI-922
aI732
aI2813
aI2029
aI1783
aI813
aI-431
aI1519
aI-1607
aI631
aI-1181
aI-788
aI-1554
aI1003
aI-1703
aI-538
aI-1713
aI757
aI-1876
aI-405
aI44
aI1725
aI1151
aI-2707
aI1286
aI-491
aI298
aI247
aI1843
aI-1961
aI-835
aI2604
aI1211
aI1650
aI1477
aI2728
aI862
aI-493
aI-194
aI119
aI-295
aI-119
aI60
aI767
aI1323
aI141
aI-1859
aI-1304
aI-412
aI-1020
aI770
aI-203
aI319
aI-160
aI-878
aI-811
aI1099
aI1141
aI961
aI123
aI996
aI-136
aI167
aI-255
aI177
aI-242
aI12
aI10
aI116
aI39
aI6
aI292
aI1280
aI-447
aI2061
aI-219
aI-1104
aI-1208
aI-194
aI-1071
aI554
aI-1861
aI66
aI260
aI1021
aI98
aI-246
aI521
aI1540
aI1173
aI1684
aI-3102
aI-630
aI1000
aI-1471
aI-85
aI-328
aI-867
aI2090
aI-572
aI1425
aI1465
aI-937
aI-240
aI632
aI673
aI42
aI164
aI1189
aI1588
aI-616
aI992
aI1865
aI722
aI482
aI-371
aI-1819
aI-257
aI-135
aI606
aI1980
aI-933
aI-1136
aI476
aI-171
aI-671
aI-1637
aI-771
aI-787
aI-1862
aI777
aI2124
aI3303
aI-51
aI825
aI-637
aI97
aI986
aI-1628
aI-1434
aI699
aI-142
aI1588
aI266
aI-1772
aI1363
aI-1714
aI-2267
aI-896
aI-2291
aI1051
aI-2222
aI-1343
aI635
aI-848
aI-425
aI1718
aI2385
aI1518
aI-219
aI913
aI1968
aI-1197
aI619
aI-2326
aI-1238
aI-117
aI-1107
aI-1092
aI-1338
aI-1346
aI1585
aI350
aI-311
aI6
aI301
aI1246
aI929
aI224
aI1166
aI964
aI408
aI-439
aI67
aI422
aI384
aI-359
aI73
aI-84
aI-40
aI47
aI683
aI821
aI993
aI-222
aI1819
aI1138
aI-120
aI1030
aI-844
aI-467
aI658
aI2730
aI540
aI-46
aI439
aI910
aI389
aI296
aI1545
aI1268
aI-99
aI-232
aI-1090
aI-929
aI-802
aI-388
aI1354
aI-651
aI-1211
aI-242
aI-70
aI1240
aI-457
aI-838
aI592
aI2006
aI-551
aI549
aI-2388
aI-156
aI215
aI883
aI666
aI1073
aI-1132
aI-1118
aI-2473
aI-1112
aI458
aI1114
aI-115
aI747
aI-2400
aI1946
aI-530
aI-1800
aI-425
aI-118
aI-819
aI-2607
aI-392
aI11
aI214
aI-365
aI-924
aI-1699
aI420
aI-2042
aI-608
aI22
aI385
aI4147
aI-514
aI-3771
aI-44
aI613
aI-1676
aI-902
aI-444
aI-1572
aI1172
aI791
aI683
aI-71
aI-1184
aI758
aI-1008
aI-402
aI305
aI-1669
aI1043
aI-957
aI1017
aI-2351
aI263
aI-660
aI-1660
aI519
aI-312
aI-348
aI-1131
aI2251
aI361
aI-1372
aI-818
aI-605
aI-377
aI-382
aI293
aI121
aI-840
aI-230
aI-218
aI-235
aI-297
aI319
aI61
aI-94
aI52
aI-27
aI1759
aI1666
aI836
aI30
aI-1394
aI2462
aI285
aI1082
aI1922
aI84
aI-813
aI-1500
aI301
aI-872
aI1755
aI-152
aI307
aI2214
aI-1331
aI-1386
aI-338
aI-1804
aI-174
aI2670
aI754
aI-950
aI-110
aI55
aI542
aI-3343
aI-360
aI732
aI275
aI-689
aI1109
aI814
aI1059
aI-859
aI418
aI-829
aI-2344
aI-613
aI-474
aI-1213
aI-357
aI882
aI381
aI-817
aI332
aI552
aI-870
aI-1859
aI638
aI150
aI668
aI739
aI26
aI-922
aI1865
aI-1541
aI-1352
aI-1050
aI986
aI-2208
aI669
aI-896
aI-1624
aI1041
aI1107
aI621
aI-159
aI-1749
aI-839
aI-1196
aI-61
aI-1854
aI-372
aI-2182
aI402
aI-701
aI1321
aI-3617
aI-2052
aI638
aI-92
aI-257
aI1029
aI230
aI2316
aI-1387
aI629
aI-101
aI-710
aI1576
aI-890
aI-2717
aI794
aI1787
aI1023
aI1310
aI-116
aI-1165
aI897
aI754
aI440
aI-1714
aI-571
aI498
aI-901
aI68
aI-451
aI-122
aI-1565
aI528
aI-65
aI169
aI-318
aI-135
aI-107
aI-43
aI1337
aI2162
aI2344
aI-140
aI-844
aI587
aI-1135
aI687
aI2011
aI1917
aI-563
aI-197
aI-402
aI704
aI-119
aI1812
aI-61
aI-205
aI426
aI652
aI976
aI-1121
aI449
aI172
aI-426
aI-131
aI2468
aI226
aI346
aI-438
aI1047
aI-2107
aI-2355
aI-1565
aI101
aI-1941
aI-120
aI-501
aI375
aI-397
aI-407
aI1788
aI268
aI-1380
aI289
aI-148
aI-52
aI1252
aI255
aI438
aI351
aI776
aI726
aI-196
aI1134
aI-2146
aI285
aI-448
aI-398
aI-518
aI956
aI2419
aI-171
aI840
aI-1359
aI835
aI-447
aI-552
aI-973
aI-1617
aI295
aI249
aI1117
aI-1486
aI608
aI-724
aI-734
aI858
aI-163
aI-1583
aI271
aI-1816
aI-1325
aI1079
aI-2200
aI2136
aI2317
aI144
aI717
aI698
aI1350
aI-131
aI296
aI-278
aI-1215
aI-741
aI822
aI568
aI786
aI-694
aI-140
aI1557
aI-628
aI28
aI62
aI-146
aI-712
aI-342
aI-495
aI-183
aI-367
aI-496
aI161
aI186
aI190
aI8
aI-202
aI179
aI39
aI7
aI-286
aI-1464
aI1339
aI2
aI-2340
aI-679
aI1383
aI-161
aI1167
aI-1628
aI312
aI-451
aI-326
aI633
aI-1853
aI-694
aI-181
aI-1341
aI-157
aI1225
aI-566
aI1421
aI-542
aI561
aI1367
aI871
aI-326
aI-1516
aI-1755
aI1578
aI104
aI-1354
aI526
aI325
aI1018
aI-2279
aI-290
aI-354
aI3050
aI427
aI2130
aI-277
aI-304
aI60
aI627
aI1626
aI687
aI-1391
aI521
aI-3069
aI-1117
aI148
aI52
aI-1031
aI331
aI177
aI-218
aI-1956
aI-285
aI-66
aI-1011
aI1158
aI-219
aI-1653
aI260
aI-390
aI-1608
aI2402
aI-1624
aI-474
aI-1282
aI-4167
aI698
aI1644
aI-2242
aI-595
aI1670
aI-1012
aI1165
aI1464
aI298
aI-270
aI568
aI-264
aI-1283
aI-15
aI2016
aI-2093
aI-692
aI664
aI-1928
aI1120
aI-1198
aI1557
aI-1661
aI-744
aI-1082
aI-1266
aI-775
aI503
aI781
aI-762
aI-69
aI69
aI2096
aI1398
aI1413
aI141
aI-682
aI-731
aI-197
aI247
aI141
aI-424
aI336
aI-151
aI51
aI261
aI-9
aI-26
aI887
aI-629
aI239
aI1904
aI1227
aI-658
aI-1417
aI1407
aI1442
aI-693
aI-2198
aI327
aI26
aI-1324
aI-1854
aI-1192
aI-115
aI86
aI1388
aI1607
aI-1720
aI1447
aI1228
aI-361
aI-344
aI1861
aI540
aI-229
aI-1814
aI1687
aI1006
aI-850
aI-1719
aI-372
aI1177
aI-1480
aI-1068
aI-534
aI1084
aI-22
aI439
aI-350
aI892
aI-1399
aI-1510
aI-280
aI-359
aI211
aI509
aI141
aI2617
aI-1909
aI-945
aI1206
aI-980
aI1964
aI-1441
aI795
aI-644
aI1417
aI535
aI1002
aI326
aI1603
aI2176
aI-499
aI-1153
aI964
aI297
aI124
aI-687
aI-503
aI-57
aI-245
aI-1142
aI738
aI-172
aI-604
aI-1338
aI1990
aI-1427
aI302
aI-435
aI-1305
aI-2104
aI-249
aI830
aI277
aI-2490
aI715
aI192
aI751
aI552
aI-1760
aI-4
aI-1636
aI-1487
aI-974
aI-813
aI84
aI-1499
aI1817
aI987
aI-716
aI102
aI-919
aI454
aI-2608
aI-1136
aI1719
aI231
aI427
aI349
aI312
aI-247
aI-120
aI322
aI-5
aI17
aI-18
aI-874
aI-329
aI-280
aI727
aI-2049
aI-9
aI2010
aI-1373
aI-893
aI-1098
aI-1524
aI-432
aI-1528
aI-612
aI2422
aI1245
aI888
aI-165
aI925
aI-383
aI-305
aI-1046
aI-1353
aI1540
aI-1331
aI1390
aI1195
aI-1770
aI729
aI-1536
aI-503
aI-495
aI217
aI-691
aI-427
aI-336
aI-240
aI458
aI-1391
aI1023
aI455
aI1346
aI1893
aI1594
aI2860
aI72
aI21
aI-139
aI-1321
aI-983
aI2081
aI2005
aI614
aI-410
aI1107
aI-512
aI1249
aI772
aI775
aI729
aI-1329
aI-803
aI654
aI1120
aI-1488
aI-1724
aI-1535
aI-154
aI678
aI786
aI-192
aI-547
aI-830
aI2691
aI1273
aI-1722
aI1527
aI-429
aI-251
aI-63
aI2497
aI-542
aI-194
aI463
aI903
aI659
aI-584
aI526
aI598
aI-520
aI1975
aI845
aI-1124
aI2377
aI-135
aI1105
aI449
aI635
aI1252
aI924
aI1041
aI-1799
aI951
aI1450
aI1222
aI919
aI-67
aI1111
aI-589
aI-510
aI-587
aI-345
aI-485
aI273
aI402
aI-14
aI-30
aI-8
aI48
aI5
aI33
aI-448
aI-409
aI1078
aI2064
aI260
aI55
aI2243
aI-1581
aI411
aI681
aI2037
aI1530
aI544
aI-2125
aI777
aI217
aI-1905
aI414
aI-1422
aI334
aI1684
aI-424
aI-2018
aI-2934
aI-1743
aI-252
aI708
aI-1150
aI1708
aI-2395
aI2826
aI748
aI418
aI-808
aI1139
aI-3106
aI1227
aI-3232
aI-1184
aI-2151
aI888
aI1051
aI-461
aI-1004
aI-1519
aI-3250
aI-522
aI320
aI1560
aI761
aI-1531
aI-1406
aI-781
aI-1032
aI968
aI-89
aI515
aI-164
aI-1020
aI692
aI-389
aI137
aI849
aI362
aI-315
aI1715
aI-126
aI-14
aI-518
aI543
aI1562
aI-611
aI514
aI477
aI1843
aI-343
aI-1515
aI1474
aI61
aI-67
aI2747
aI197
aI-2130
aI28
aI-400
aI-27
aI529
aI-12
aI517
aI-1331
aI934
aI1511
aI-62
aI837
aI2572
aI31
aI-111
aI-2641
aI-430
aI-1399
aI-27
aI-188
aI-2114
aI-2070
aI68
aI-1191
aI-724
aI1102
aI-290
aI193
aI-216
aI1058
aI-567
aI-336
aI-802
aI-134
aI-148
aI44
aI-31
aI-3141
aI1391
aI-1594
aI-206
aI-2768
aI1021
aI250
aI-1617
aI-2725
aI2928
aI-227
aI-1543
aI491
aI1507
aI1166
aI1006
aI652
aI497
aI501
aI-1017
aI-58
aI-2101
aI-1214
aI-146
aI1404
aI-445
aI406
aI1470
aI1243
aI-3079
aI-334
aI18
aI688
aI509
aI-97
aI17
aI1318
aI1357
aI-2066
aI631
aI11
aI1611
aI-172
aI1220
aI465
aI-2018
aI-10
aI-2005
aI-1446
aI2205
aI-1710
aI1433
aI-1203
aI-2209
aI-140
aI-1017
aI1249
aI1003
aI1028
aI565
aI1716
aI1147
aI-1029
aI103
aI-3084
aI1393
aI832
aI-1312
aI-242
aI131
aI-215
aI-1286
aI358
aI347
aI2324
aI-331
aI31
aI-1678
aI-658
aI-645
aI-52
aI-2603
aI-316
aI948
aI67
aI-520
aI1163
aI-54
aI2870
aI402
aI701
aI-810
aI34
aI876
aI-464
aI624
aI1131
aI912
aI44
aI1020
aI-1538
aI-2574
aI123
aI698
aI-472
aI1114
aI24
aI1067
aI-1799
aI258
aI175
aI414
aI-820
aI212
aI-43
aI156
aI67
aI-194
aI-58
aI-36
aI-70
aI1869
aI423
aI-213
aI1100
aI733
aI-2051
aI1546
aI-42
aI-2895
aI-1388
aI69
aI-506
aI968
aI-1040
aI401
aI106
aI156
aI-540
aI528
aI-232
aI-2265
aI-1435
aI1575
aI1229
aI-1042
aI436
aI958
aI181
aI-3244
aI-343
aI536
aI-1048
aI721
aI1390
aI2332
aI1639
aI2245
aI805
aI-718
aI-51
aI-2606
aI-342
aI-1204
aI921
aI-2068
aI-273
aI2366
aI494
aI-1262
aI-1873
aI-1169
aI2248
aI-262
aI1485
aI1567
aI-1038
aI1620
aI110
aI-648
aI-302
aI-890
aI199
aI-1328
aI-158
aI725
aI148
aI-209
aI582
aI753
aI2760
aI241
aI1974
aI1984
aI-93
aI330
aI-1494
aI915
aI-998
aI-720
aI-1776
aI-972
aI-946
aI-442
aI448
aI682
aI275
aI-250
aI-1317
aI640
aI-1384
aI-1209
aI-1902
aI1711
aI1654
aI-1790
aI787
aI-625
aI-1071
aI26
aI561
aI286
aI-503
aI1327
aI-397
aI-1026
aI-1148
aI-143
aI360
aI32
aI70
aI1077
aI-1249
aI261
aI292
aI598
aI-2
aI29
aI-55
aI14
aI-388
aI-222
aI-934
aI844
aI-2169
aI-1173
aI-175
aI956
aI-1006
aI702
aI1794
aI-854
aI-244
aI-1199
aI1239
aI1840
aI-776
aI-1577
aI-510
aI-1402
aI-89
aI267
aI-814
aI790
aI241
aI-1579
aI-346
aI-209
aI364
aI-2334
aI-795
aI-176
aI533
aI1030
aI-199
aI213
aI505
aI-177
aI590
aI1643
aI-1675
aI1930
aI-650
aI-428
aI240
aI-547
aI1942
aI2423
aI-2625
aI2084
aI778
aI790
aI1218
aI-1500
aI-822
aI-810
aI442
aI126
aI287
aI449
aI-724
aI728
aI467
aI-1099
aI357
aI-903
aI590
aI624
aI-303
aI-1338
aI-528
aI-46
aI52
aI-944
aI1697
aI-329
aI33
aI645
aI32
aI-1073
aI-63
aI-1256
aI778
aI-1018
aI-204
aI292
aI170
aI890
aI85
aI1095
aI1429
aI-992
aI-698
aI-727
aI-122
aI-2261
aI1890
aI1923
aI-20
aI97
aI944
aI-658
aI545
aI-141
aI-1439
aI738
aI-1747
aI253
aI320
aI-328
aI477
aI-1189
aI317
aI96
aI36
aI-350
aI-176
aI84
aI-10
aI29
aI525
aI1966
aI973
aI724
aI-637
aI-327
aI312
aI62
aI-1912
aI264
aI2213
aI109
aI-146
aI2058
aI-808
aI-320
aI1158
aI263
aI778
aI358
aI-144
aI385
aI625
aI235
aI205
aI-832
aI-360
aI990
aI244
aI-438
aI-351
aI-1096
aI207
aI-300
aI-1067
aI1261
aI804
aI1398
aI1082
aI-363
aI365
aI-677
aI-1567
aI1138
aI761
aI-2771
aI-2932
aI-1951
aI1219
aI295
aI-3278
aI-178
aI-1272
aI-1043
aI-1927
aI-190
aI265
aI-1266
aI-1161
aI959
aI2456
aI918
aI176
aI-1468
aI-1037
aI1410
aI-366
aI-330
aI-1350
aI-684
aI475
aI1340
aI-1135
aI-1179
aI300
aI-732
aI419
aI212
aI84
aI-112
aI727
aI-1303
aI869
aI-638
aI-577
aI2037
aI1565
aI-626
aI1691
aI768
aI-2754
aI379
aI1558
aI-1154
aI-526
aI504
aI-219
aI-758
aI-2203
aI-255
aI714
aI291
aI-1198
aI-470
aI-794
aI-1431
aI2919
aI226
aI961
aI258
aI-1249
aI538
aI-209
aI-337
aI-127
aI-222
aI15
aI-192
aI61
aI51
aI-1850
aI268
aI-898
aI1574
aI17
aI660
aI-1981
aI680
aI-14
aI437
aI1054
aI1093
aI475
aI74
aI-678
aI900
aI-136
aI16
aI507
aI-390
aI-1432
aI435
aI-621
aI-938
aI-809
aI-207
aI-878
aI206
aI-2514
aI1336
aI236
aI457
aI-328
aI931
aI845
aI577
aI-229
aI1038
aI-264
aI385
aI1399
aI307
aI89
aI1015
aI634
aI1411
aI-176
aI2445
aI-2100
aI-1738
aI-16
aI27
aI1985
aI-991
aI1250
aI534
aI795
aI772
aI-127
aI-1288
aI1198
aI-942
aI-1688
aI-843
aI-672
aI-1235
aI-997
aI-913
aI-250
aI-371
aI-232
aI-161
aI547
aI1971
aI279
aI-381
aI1019
aI-1413
aI452
aI848
aI16
aI437
aI158
aI634
aI852
aI-2664
aI-535
aI-415
aI-1933
aI1372
aI902
aI134
aI-2709
aI1605
aI1428
aI-1506
aI913
aI-657
aI-32
aI-927
aI-681
aI-1163
aI280
aI-923
aI-250
aI-1084
aI168
aI668
aI402
aI-114
aI-831
aI244
aI-336
aI167
aI-231
aI150
aI147
aI301
aI-15
aI52
aI-3584
aI-708
aI82
aI-1241
aI-59
aI62
aI-875
aI-215
aI-1432
aI294
aI1817
aI-434
aI-1153
aI-981
aI1394
aI443
aI491
aI475
aI-62
aI-1298
aI738
aI-939
aI813
aI67
aI940
aI834
aI-1124
aI-1422
aI273
aI1152
aI814
aI1138
aI415
aI-653
aI-1107
aI356
aI703
aI240
aI1289
aI1427
aI-77
aI-826
aI-2078
aI307
aI1325
aI637
aI1027
aI-1095
aI-1207
aI-1313
aI-353
aI363
aI611
aI-819
aI-1889
aI355
aI123
aI-58
aI-1987
aI16
aI331
aI221
aI433
aI-859
aI-1421
aI2151
aI493
aI1265
aI-272
aI-1586
aI25
aI-48
aI722
aI2083
aI-237
aI486
aI612
aI1348
aI-1068
aI-155
aI366
aI1381
aI9
aI-537
aI372
aI-327
aI-1351
aI-440
aI-258
aI520
aI1853
aI-394
aI-787
aI1745
aI168
aI516
aI608
aI391
aI-528
aI1120
aI371
aI900
aI1026
aI1339
aI-518
aI-1661
aI2475
aI773
aI240
aI222
aI-545
aI1387
aI244
aI183
aI227
aI809
aI137
aI155
aI-27
aI85
aI828
aI1584
aI-104
aI2015
aI1103
aI393
aI-319
aI599
aI-1285
aI-724
aI-2912
aI-266
aI-271
aI2155
aI-875
aI127
aI2931
aI1630
aI1237
aI-672
aI883
aI-159
aI530
aI252
aI-867
aI680
aI500
aI-367
aI331
aI631
aI-3745
aI-651
aI406
aI251
aI-1000
aI1057
aI-137
aI-786
aI-1585
aI-1251
aI-1847
aI-440
aI399
aI441
aI176
aI-1394
aI-846
aI-2046
aI253
aI-224
aI-198
aI-398
aI-144
aI-797
aI-123
aI-408
aI247
aI-1514
aI2159
aI-8
aI-86
aI-55
aI-1519
aI2026
aI181
aI-255
aI171
aI-1602
aI717
aI932
aI-662
aI-887
aI-685
aI1375
aI-2141
aI-153
aI594
aI-931
aI-752
aI189
aI2875
aI61
aI-228
aI-1646
aI401
aI1117
aI1342
aI2538
aI1503
aI-993
aI-660
aI1268
aI1854
aI-511
aI943
aI1155
aI-711
aI446
aI-505
aI734
aI1012
aI-457
aI492
aI-922
aI305
aI559
aI7
aI-919
aI-425
aI-110
aI-1201
aI1629
aI-218
aI48
aI318
aI220
aI381
aI266
aI-8
aI-62
aI-342
aI484
aI-255
aI1717
aI-1362
aI664
aI-396
aI-817
aI48
aI1578
aI-339
aI1370
aI231
aI-208
aI1994
aI66
aI-834
aI-137
aI1616
aI-2839
aI741
aI-589
aI-489
aI-1036
aI-2567
aI-3
aI-143
aI1154
aI-483
aI-401
aI80
aI914
aI1847
aI-376
aI-676
aI-700
aI-246
aI-404
aI-1011
aI-1059
aI-661
aI2299
aI-1084
aI2007
aI258
aI-10
aI521
aI1928
aI-1128
aI451
aI-156
aI2157
aI297
aI-875
aI-1056
aI-1419
aI1462
aI-2177
aI874
aI-1330
aI-612
aI134
aI562
aI347
aI-2289
aI-570
aI-134
aI-959
aI-907
aI2276
aI-149
aI-68
aI-584
aI-1884
aI1799
aI-1889
aI-838
aI-2498
aI750
aI-2185
aI1046
aI-1691
aI-1259
aI1135
aI-999
aI731
aI1195
aI1201
aI524
aI96
aI1346
aI-236
aI-217
aI511
aI-670
aI842
aI698
aI1809
aI-402
aI713
aI1323
aI-1460
aI1663
aI-320
aI853
aI1447
aI-571
aI645
aI-1045
aI-53
aI-256
aI-151
aI-214
aI-175
aI-35
aI-397
aI-329
aI-66
aI-76
aI45
aI577
aI151
aI306
aI-1947
aI-776
aI145
aI1272
aI-1320
aI2081
aI1022
aI-438
aI-938
aI-2307
aI-593
aI2112
aI-2084
aI-306
aI1831
aI-1588
aI117
aI-938
aI162
aI660
aI-37
aI-809
aI1507
aI-739
aI-885
aI2515
aI1236
aI535
aI-154
aI731
aI485
aI-1156
aI-1739
aI1487
aI-1648
aI173
aI-90
aI1147
aI-2386
aI-1289
aI1495
aI183
aI1386
aI2294
aI765
aI1349
aI856
aI2258
aI1546
aI-1959
aI1426
aI-801
aI-1720
aI-153
aI-1009
aI1741
aI1267
aI304
aI-2713
aI504
aI-963
aI-865
aI1047
aI-787
aI595
aI-511
aI2633
aI980
aI580
aI-2227
aI-717
aI390
aI625
aI-272
aI920
aI-927
aI-1602
aI213
aI205
aI1375
aI1523
aI456
aI-558
aI123
aI-2389
aI1533
aI-1022
aI-962
aI-979
aI1598
aI439
aI-1074
aI348
aI-1807
aI1844
aI1929
aI206
aI1411
aI-452
aI962
aI-1182
aI1835
aI-151
aI-708
aI-286
aI-102
aI443
aI223
aI544
aI-380
aI30
aI406
aI127
aI-40
aI178
aI37
aI103
aI2525
aI1258
aI-1011
aI-2742
aI1151
aI-2341
aI1184
aI-2344
aI709
aI-6
aI8
aI670
aI2029
aI-271
aI-455
aI-1833
aI-1400
aI-676
aI-828
aI661
aI1064
aI-334
aI648
aI-507
aI1332
aI-7
aI364
aI2237
aI-1752
aI548
aI-582
aI-1826
aI-709
aI588
aI342
aI-198
aI670
aI-1051
aI197
aI351
aI2269
aI-1411
aI399
aI-423
aI809
aI-193
aI-293
aI-578
aI-27
aI-1145
aI-1420
aI2306
aI-1134
aI-523
aI247
aI-685
aI782
aI1344
aI-284
aI-179
aI1989
aI2212
aI353
aI1846
aI1879
aI231
aI797
aI-2396
aI-695
aI-1999
aI165
aI-697
aI468
aI-1081
aI-302
aI283
aI1008
aI2373
aI894
aI-1395
aI-756
aI141
aI907
aI2036
aI364
aI494
aI-404
aI388
aI-32
aI692
aI233
aI-1027
aI996
aI-2381
aI795
aI1378
aI-168
aI-1140
aI1899
aI-2034
aI-1163
aI1575
aI-1149
aI346
aI1333
aI1418
aI-345
aI809
aI561
aI-402
aI1188
aI962
aI514
aI577
aI8
aI-382
aI-108
aI-33
aI-76
aI-12
aI-628
aI951
aI-1504
aI-1145
aI437
aI517
aI-705
aI-1039
aI695
aI1731
aI-714
aI345
aI940
aI145
aI1576
aI1109
aI2194
aI560
aI730
aI-1785
aI544
aI-809
aI305
aI111
aI-787
aI447
aI1148
aI-344
aI1378
aI1757
aI205
aI-408
aI27
aI-840
aI-556
aI203
aI2030
aI-1126
aI-3088
aI-859
aI-3672
aI2947
aI-2441
aI-306
aI-2564
aI1448
aI226
aI89
aI-1414
aI1408
aI1319
aI-2394
aI-1218
aI-1283
aI3013
aI483
aI1359
aI-1206
aI1062
aI-1989
aI-1173
aI-1948
aI-442
aI948
aI-1041
aI-1327
aI374
aI450
aI-515
aI1317
aI-201
aI-1276
aI539
aI-2219
aI1003
aI593
aI16
aI-1099
aI1096
aI-882
aI1415
aI1465
aI-248
aI1853
aI-192
aI-2599
aI-1660
aI312
aI-56
aI-1501
aI1778
aI427
aI-1715
aI1898
aI410
aI398
aI-527
aI2547
aI916
aI-17
aI-1135
aI1072
aI1007
aI-1372
aI-495
aI-1175
aI-1342
aI-1123
aI-553
aI886
aI-791
aI419
aI-75
aI111
aI-63
aI429
aI135
aI186
aI-39
aI28
aS'long'
p2
tp3
Rp4
F118692434.0
I00
tp5
.