(cfpylll.fplll.integer_matrix
unpickle_IntegerMatrix
p0
(I120
I120
(lp1
I-1214
aI-366
aI-846
aI214
aI-192
aI-340
aI289
aI-378
aI750
aI691
aI47
aI-166
aI69
aI-179
aI1061
aI5
aI54
aI-839
aI628
aI216
aI-186
aI-181
aI-46
aI496
aI217
aI402
aI-539
aI-154
aI212
aI80
aI-83
aI722
aI-120
aI57
aI-530
aI381
aI-317
aI-1553
aI61
aI-754
aI208
aI-309
aI-369
aI873
aI153
aI-250
aI-641
aI359
aI-1141
aI-824
aI101
aI443
aI130
aI-89
aI-564
aI555
aI-131
aI1
aI-620
aI-340
aI737
aI-1196
aI-408
aI1066
aI-86
aI226
aI-814
aI777
aI-1209
aI-165
aI-484
aI-1259
aI-776
aI597
aI-847
aI-79
aI660
aI552
aI608
aI765
aI-672
aI327
aI-143
aI-248
aI175
aI-437
aI-530
aI-924
aI-406
aI-65
aI416
aI728
aI-754
aI212
aI-835
aI-655
aI236
aI693
aI-78
aI289
aI157
aI-758
aI770
aI115
aI192
aI199
aI-205
aI988
aI-644
aI493
aI768
aI-278
aI417
aI-659
aI-94
aI93
aI432
aI68
aI109
aI-5
aI-201
aI545
aI234
aI-783
aI479
aI-497
aI-24
aI820
aI-504
aI57
aI1294
aI373
aI-869
aI862
aI1041
aI83
aI-1150
aI619
aI500
aI-302
aI-1169
aI116
aI-49
aI-1308
aI409
aI-381
aI683
aI95
aI288
aI-490
aI-797
aI-550
aI466
aI-49
aI-911
aI32
aI-96
aI-632
aI-541
aI-404
aI-72
aI-51
aI-142
aI-287
aI-536
aI421
aI959
aI485
aI1085
aI-166
aI-680
aI86
aI4
aI-43
aI457
aI-640
aI724
aI531
aI384
aI-296
aI686
aI-748
aI327
aI530
aI-1458
aI-163
aI107
aI1410
aI2
aI142
aI-1665
aI82
aI179
aI-660
aI336
aI214
aI98
aI740
aI531
aI-841
aI-589
aI-805
aI-549
aI-479
aI-467
aI-10
aI476
aI-77
aI-680
aI-922
aI-551
aI-54
aI-663
aI372
aI-200
aI18
aI1
aI741
aI-558
aI-349
aI84
aI-635
aI-329
aI240
aI-237
aI-294
aI-34
aI571
aI-704
aI-97
aI-362
aI-203
aI531
aI-605
aI467
aI725
aI-296
aI69
aI-76
aI-3
aI-869
aI510
aI-52
aI356
aI-423
aI1000
aI-35
aI270
aI221
aI555
aI-618
aI-1139
aI46
aI92
aI-579
aI450
aI-626
aI434
aI-348
aI263
aI1029
aI-57
aI-1125
aI-78
aI-234
aI-511
aI384
aI728
aI-89
aI778
aI479
aI219
aI-1001
aI-230
aI663
aI-1067
aI172
aI-351
aI175
aI-162
aI639
aI-342
aI-472
aI-161
aI903
aI348
aI-1112
aI-552
aI-755
aI236
aI-186
aI1088
aI-58
aI528
aI136
aI726
aI-146
aI414
aI-1110
aI674
aI287
aI55
aI-650
aI-300
aI13
aI-234
aI-542
aI-954
aI-17
aI-961
aI980
aI570
aI567
aI1288
aI-179
aI-172
aI299
aI-325
aI-666
aI888
aI-298
aI-587
aI198
aI409
aI21
aI322
aI739
aI936
aI214
aI984
aI-642
aI-953
aI470
aI-369
aI-21
aI171
aI1598
aI-866
aI-133
aI731
aI-607
aI169
aI471
aI283
aI-591
aI209
aI674
aI299
aI-525
aI-851
aI256
aI-441
aI-694
aI-754
aI93
aI407
aI-151
aI-443
aI-11
aI2
aI85
aI103
aI-486
aI652
aI-244
aI-547
aI-356
aI265
aI-113
aI139
aI684
aI-531
aI383
aI126
aI1079
aI306
aI902
aI-392
aI417
aI-395
aI754
aI-146
aI1001
aI58
aI-1270
aI1065
aI-1462
aI93
aI1338
aI248
aI-529
aI454
aI-163
aI-68
aI-349
aI568
aI-6
aI-500
aI622
aI-802
aI-265
aI199
aI937
aI419
aI-609
aI-471
aI47
aI432
aI-34
aI187
aI697
aI-547
aI143
aI-43
aI-1121
aI-987
aI700
aI-673
aI60
aI897
aI998
aI270
aI788
aI161
aI-492
aI675
aI38
aI130
aI-168
aI-415
aI177
aI832
aI85
aI-752
aI-188
aI933
aI-281
aI346
aI-160
aI448
aI705
aI971
aI-1241
aI-263
aI1255
aI11
aI-656
aI-1145
aI344
aI-1097
aI-29
aI622
aI-450
aI-258
aI163
aI-15
aI-58
aI1179
aI-139
aI-731
aI567
aI146
aI-477
aI-169
aI461
aI-167
aI-204
aI-571
aI-464
aI771
aI-178
aI-233
aI736
aI282
aI69
aI-636
aI506
aI446
aI103
aI-4
aI-745
aI769
aI267
aI956
aI266
aI1041
aI-214
aI392
aI162
aI-592
aI-262
aI-598
aI-373
aI-21
aI-758
aI-267
aI-277
aI-467
aI233
aI431
aI-92
aI-16
aI-96
aI-1213
aI-406
aI923
aI448
aI809
aI-213
aI-496
aI-433
aI1024
aI-1291
aI413
aI-271
aI-1002
aI-1231
aI779
aI-290
aI194
aI326
aI1093
aI123
aI977
aI213
aI-647
aI-1366
aI320
aI-451
aI735
aI-440
aI959
aI425
aI479
aI574
aI877
aI-846
aI1398
aI-603
aI313
aI1107
aI-547
aI-877
aI844
aI-405
aI-485
aI-241
aI-917
aI748
aI-1007
aI-91
aI578
aI560
aI36
aI473
aI-285
aI-597
aI394
aI-834
aI425
aI-73
aI-515
aI-424
aI361
aI-534
aI885
aI-88
aI-217
aI-52
aI-152
aI-444
aI-43
aI179
aI-1354
aI239
aI-177
aI767
aI140
aI124
aI482
aI35
aI277
aI859
aI37
aI810
aI23
aI491
aI1199
aI-366
aI-312
aI414
aI444
aI168
aI-829
aI76
aI757
aI-101
aI-225
aI-20
aI-3
aI843
aI431
aI201
aI-339
aI-736
aI-103
aI99
aI-288
aI262
aI-85
aI-678
aI-993
aI317
aI-33
aI-383
aI-551
aI-521
aI-101
aI-337
aI528
aI1406
aI-146
aI1493
aI57
aI-847
aI-605
aI-504
aI11
aI569
aI351
aI664
aI-360
aI443
aI-81
aI255
aI-940
aI156
aI1233
aI129
aI-43
aI1121
aI-58
aI14
aI-578
aI-14
aI215
aI-555
aI-1676
aI1142
aI1097
aI-558
aI364
aI-216
aI1151
aI-689
aI397
aI201
aI-84
aI148
aI1130
aI-436
aI115
aI-57
aI-1260
aI-160
aI500
aI-78
aI-441
aI412
aI-685
aI768
aI876
aI438
aI-824
aI419
aI-982
aI-931
aI259
aI-182
aI75
aI-496
aI-729
aI-184
aI-82
aI-476
aI149
aI-445
aI8
aI985
aI-225
aI-18
aI28
aI-86
aI-187
aI-481
aI267
aI497
aI385
aI-421
aI415
aI-406
aI-622
aI-1426
aI-7
aI986
aI-103
aI415
aI-206
aI-488
aI208
aI-697
aI-1464
aI-951
aI199
aI488
aI-689
aI360
aI564
aI32
aI1
aI216
aI285
aI112
aI-605
aI-272
aI-1048
aI336
aI-1049
aI84
aI-403
aI-161
aI-531
aI506
aI343
aI-528
aI-20
aI-471
aI-273
aI401
aI1683
aI-150
aI204
aI29
aI-138
aI-678
aI450
aI-1397
aI-360
aI-689
aI-78
aI-828
aI662
aI287
aI295
aI-200
aI-468
aI-429
aI129
aI-443
aI-219
aI139
aI-545
aI839
aI1285
aI1234
aI-809
aI-586
aI-821
aI-209
aI-333
aI795
aI-342
aI-115
aI280
aI-667
aI-1666
aI453
aI-1
aI6
aI-330
aI-71
aI103
aI-389
aI654
aI627
aI66
aI657
aI787
aI-1091
aI158
aI94
aI-1361
aI-130
aI129
aI-355
aI-1046
aI143
aI-891
aI395
aI-929
aI525
aI-136
aI620
aI639
aI1253
aI-948
aI13
aI-613
aI326
aI-39
aI1060
aI429
aI-1102
aI-293
aI167
aI457
aI-512
aI451
aI538
aI7
aI-16
aI464
aI110
aI468
aI296
aI162
aI-1114
aI-505
aI182
aI212
aI1167
aI301
aI122
aI53
aI179
aI-380
aI172
aI691
aI35
aI3
aI-778
aI53
aI712
aI-111
aI663
aI-37
aI595
aI338
aI303
aI-154
aI487
aI735
aI937
aI-185
aI445
aI301
aI656
aI-719
aI-95
aI-222
aI323
aI-891
aI-710
aI539
aI914
aI473
aI754
aI289
aI-175
aI735
aI1089
aI33
aI-395
aI-972
aI499
aI177
aI381
aI-105
aI426
aI-752
aI294
aI-133
aI-978
aI-339
aI383
aI839
aI-292
aI821
aI-696
aI-692
aI82
aI517
aI-1988
aI-295
aI824
aI1917
aI-921
aI-554
aI179
aI-257
aI792
aI-880
aI412
aI-752
aI-997
aI-432
aI-1642
aI123
aI366
aI-281
aI511
aI552
aI726
aI-219
aI-294
aI-22
aI728
aI600
aI-242
aI745
aI-282
aI89
aI339
aI365
aI-1533
aI984
aI56
aI-267
aI10
aI-354
aI11
aI-537
aI-332
aI-81
aI-967
aI-673
aI-824
aI1003
aI-190
aI133
aI-66
aI-44
aI813
aI16
aI-394
aI-632
aI554
aI247
aI-874
aI-184
aI-66
aI139
aI852
aI-138
aI249
aI101
aI239
aI-298
aI14
aI-3
aI-876
aI1193
aI-571
aI576
aI-579
aI-109
aI78
aI-364
aI-293
aI933
aI-11
aI-927
aI-705
aI588
aI-767
aI-128
aI-238
aI762
aI-352
aI-1065
aI79
aI245
aI-553
aI-54
aI-1696
aI532
aI-815
aI913
aI195
aI607
aI-266
aI777
aI-138
aI598
aI455
aI-1255
aI259
aI697
aI-1119
aI-987
aI-276
aI12
aI432
aI490
aI-210
aI308
aI47
aI350
aI-397
aI737
aI14
aI-401
aI1424
aI-139
aI-1153
aI-1302
aI1030
aI179
aI146
aI639
aI68
aI117
aI-639
aI-65
aI1070
aI1001
aI74
aI-264
aI-683
aI937
aI620
aI643
aI139
aI471
aI-282
aI420
aI-370
aI-563
aI-1260
aI-445
aI387
aI-59
aI238
aI713
aI2322
aI-969
aI-914
aI-71
aI968
aI355
aI50
aI244
aI580
aI465
aI300
aI413
aI977
aI-476
aI161
aI-218
aI-132
aI587
aI-322
aI549
aI-365
aI-8
aI558
aI-783
aI92
aI-83
aI-66
aI280
aI-924
aI1066
aI-226
aI-471
aI597
aI186
aI159
aI0
aI203
aI1268
aI71
aI-191
aI124
aI127
aI-35
aI-189
aI362
aI1264
aI-430
aI-1062
aI-522
aI45
aI605
aI-120
aI-1439
aI1088
aI-278
aI-343
aI472
aI396
aI8
aI-1267
aI-627
aI-541
aI-457
aI-966
aI134
aI456
aI-584
aI-312
aI904
aI111
aI603
aI-828
aI-426
aI-313
aI279
aI-976
aI14
aI99
aI14
aI380
aI-436
aI128
aI-444
aI-602
aI-429
aI631
aI256
aI-40
aI-388
aI-257
aI-507
aI-804
aI657
aI244
aI126
aI955
aI-507
aI-1220
aI913
aI205
aI-179
aI71
aI-174
aI-114
aI-737
aI672
aI761
aI394
aI-152
aI-507
aI-847
aI39
aI405
aI460
aI100
aI-631
aI-1409
aI-1224
aI650
aI1175
aI199
aI-1548
aI-8
aI384
aI-11
aI-35
aI578
aI993
aI727
aI-498
aI-99
aI267
aI693
aI735
aI237
aI896
aI-474
aI-838
aI326
aI-55
aI-932
aI-67
aI-354
aI-271
aI-894
aI214
aI616
aI-228
aI-275
aI167
aI610
aI-646
aI249
aI377
aI196
aI-9
aI287
aI769
aI-185
aI61
aI801
aI723
aI-1139
aI1276
aI1031
aI180
aI-284
aI-245
aI-1227
aI336
aI102
aI1193
aI-225
aI514
aI157
aI137
aI168
aI-10
aI-355
aI-560
aI1010
aI-8
aI-242
aI-1169
aI863
aI-931
aI198
aI-45
aI327
aI-87
aI813
aI176
aI-162
aI-317
aI53
aI271
aI196
aI588
aI343
aI-135
aI-1598
aI900
aI151
aI-697
aI-651
aI-79
aI-301
aI1149
aI111
aI326
aI653
aI53
aI370
aI338
aI-480
aI31
aI-1073
aI-1057
aI351
aI-553
aI-997
aI-552
aI-91
aI-76
aI-742
aI194
aI-716
aI464
aI-681
aI-844
aI-415
aI1349
aI-380
aI271
aI-734
aI89
aI-1361
aI-741
aI7
aI-116
aI-1749
aI-103
aI669
aI-499
aI-860
aI-540
aI-755
aI133
aI-453
aI-469
aI-73
aI-825
aI20
aI-898
aI-387
aI532
aI111
aI-879
aI-163
aI-658
aI-278
aI221
aI490
aI63
aI-1315
aI274
aI-339
aI-410
aI-109
aI-435
aI-85
aI376
aI-419
aI269
aI77
aI-7
aI-182
aI556
aI526
aI774
aI319
aI889
aI-16
aI482
aI1309
aI-523
aI-1497
aI115
aI-413
aI-372
aI-417
aI878
aI911
aI-1263
aI-49
aI-469
aI1220
aI-689
aI-227
aI1533
aI624
aI-58
aI-346
aI979
aI23
aI835
aI1342
aI843
aI-1042
aI-72
aI368
aI230
aI239
aI-118
aI-158
aI-452
aI80
aI-892
aI-329
aI-1228
aI-565
aI830
aI498
aI-253
aI-921
aI-30
aI428
aI140
aI853
aI-9
aI787
aI2639
aI-812
aI-215
aI-115
aI-751
aI-279
aI-325
aI669
aI-798
aI1351
aI523
aI-55
aI66
aI-303
aI907
aI-121
aI333
aI-335
aI852
aI-904
aI-38
aI18
aI461
aI-230
aI235
aI355
aI755
aI1161
aI633
aI-67
aI530
aI-236
aI-222
aI803
aI736
aI-516
aI-421
aI134
aI1268
aI-49
aI-552
aI-169
aI-1409
aI151
aI-620
aI1401
aI373
aI390
aI50
aI173
aI-144
aI271
aI71
aI181
aI341
aI-788
aI-237
aI-481
aI306
aI-560
aI235
aI-100
aI-54
aI34
aI3
aI1155
aI-1156
aI141
aI-424
aI234
aI426
aI-159
aI-959
aI-1145
aI922
aI-814
aI-286
aI1794
aI47
aI-520
aI-731
aI-120
aI1202
aI323
aI371
aI848
aI70
aI900
aI-404
aI-147
aI-1088
aI-376
aI-496
aI312
aI644
aI1533
aI349
aI1166
aI-825
aI380
aI269
aI709
aI339
aI1446
aI-510
aI716
aI656
aI-308
aI-25
aI1859
aI-340
aI-952
aI-1393
aI679
aI64
aI65
aI-44
aI-1034
aI-151
aI356
aI-533
aI-149
aI-455
aI-431
aI56
aI-134
aI1192
aI537
aI-689
aI-342
aI-1135
aI-1210
aI-875
aI-349
aI-293
aI1785
aI-20
aI-178
aI-137
aI818
aI-1416
aI-122
aI-539
aI1458
aI231
aI9
aI-622
aI-458
aI526
aI-318
aI-779
aI701
aI994
aI807
aI1092
aI-15
aI-485
aI102
aI-292
aI-479
aI868
aI452
aI804
aI-719
aI380
aI-1135
aI-397
aI114
aI142
aI-80
aI245
aI-907
aI-210
aI927
aI-816
aI170
aI-649
aI-172
aI-660
aI704
aI-465
aI-237
aI-271
aI-108
aI7
aI479
aI157
aI0
aI812
aI875
aI505
aI-607
aI-158
aI452
aI648
aI-1108
aI505
aI-1059
aI52
aI-1781
aI65
aI-953
aI935
aI341
aI-999
aI218
aI487
aI-207
aI-1296
aI193
aI-634
aI1207
aI-601
aI-236
aI742
aI408
aI-287
aI-223
aI355
aI1498
aI-544
aI297
aI633
aI-205
aI-370
aI5
aI-398
aI514
aI-50
aI-556
aI1760
aI-22
aI-725
aI147
aI616
aI205
aI460
aI-179
aI839
aI923
aI-80
aI936
aI990
aI-587
aI14
aI-546
aI330
aI1220
aI240
aI231
aI-683
aI56
aI-1179
aI-515
aI1084
aI-477
aI71
aI87
aI-123
aI-35
aI269
aI257
aI1174
aI15
aI-715
aI344
aI109
aI191
aI1177
aI-276
aI-407
aI833
aI337
aI615
aI660
aI-848
aI-330
aI1080
aI-148
aI162
aI-332
aI-344
aI-1412
aI-125
aI-546
aI-175
aI178
aI1431
aI227
aI-140
aI490
aI202
aI14
aI-403
aI-680
aI-142
aI156
aI-1002
aI40
aI107
aI962
aI-741
aI-294
aI61
aI-7
aI799
aI-1068
aI-666
aI-128
aI-918
aI-101
aI-1173
aI-331
aI854
aI-335
aI-619
aI-283
aI-164
aI-293
aI43
aI239
aI322
aI-335
aI-1178
aI15
aI1086
aI-348
aI-917
aI813
aI20
aI-960
aI657
aI402
aI-112
aI1486
aI-1071
aI-1091
aI-1018
aI553
aI-405
aI105
aI560
aI-613
aI1292
aI996
aI-208
aI-1674
aI-33
aI-1958
aI291
aI362
aI1229
aI250
aI248
aI553
aI-319
aI-63
aI494
aI1043
aI-116
aI28
aI413
aI-580
aI-675
aI-86
aI-489
aI591
aI-921
aI-483
aI1506
aI615
aI689
aI-2060
aI77
aI-13
aI490
aI576
aI157
aI1438
aI607
aI1113
aI838
aI659
aI-161
aI184
aI1182
aI640
aI287
aI114
aI1031
aI194
aI1642
aI1685
aI-297
aI1836
aI-469
aI-846
aI1949
aI34
aI1683
aI664
aI215
aI-1912
aI387
aI-472
aI443
aI-451
aI430
aI422
aI-730
aI570
aI387
aI134
aI1209
aI-662
aI-601
aI47
aI-475
aI150
aI-174
aI767
aI-1095
aI-262
aI56
aI-2
aI-71
aI150
aI139
aI-593
aI-550
aI-687
aI676
aI-408
aI2053
aI-300
aI-1778
aI-212
aI-267
aI-1233
aI434
aI-133
aI657
aI-981
aI-462
aI424
aI720
aI-483
aI288
aI1842
aI1241
aI-957
aI-421
aI-1785
aI618
aI1389
aI785
aI-100
aI668
aI474
aI425
aI43
aI493
aI-91
aI1708
aI-820
aI-432
aI-328
aI-1201
aI373
aI-1507
aI483
aI-121
aI-930
aI-188
aI-585
aI543
aI-576
aI-44
aI864
aI-496
aI1705
aI-998
aI-894
aI694
aI-272
aI-641
aI-2141
aI964
aI-1497
aI457
aI560
aI-487
aI750
aI-1327
aI481
aI366
aI-525
aI-649
aI-838
aI-1916
aI743
aI47
aI1351
aI-826
aI389
aI-932
aI58
aI1613
aI1192
aI86
aI-399
aI46
aI-1377
aI61
aI876
aI677
aI1634
aI606
aI307
aI-933
aI-995
aI-1467
aI679
aI189
aI466
aI590
aI-1021
aI508
aI-522
aI32
aI463
aI1077
aI-213
aI-49
aI1646
aI21
aI-158
aI325
aI802
aI-251
aI-851
aI550
aI525
aI236
aI-4
aI509
aI-1441
aI-624
aI212
aI307
aI-489
aI-164
aI-1048
aI158
aI1628
aI-446
aI512
aI872
aI321
aI-1153
aI-1343
aI299
aI-116
aI53
aI-534
aI350
aI-752
aI2106
aI1945
aI-215
aI-566
aI588
aI1090
aI-702
aI-772
aI1482
aI43
aI286
aI-906
aI590
aI40
aI133
aI435
aI-398
aI510
aI1204
aI-264
aI-410
aI-1075
aI975
aI749
aI-287
aI-411
aI504
aI615
aI-780
aI-337
aI-42
aI1302
aI-559
aI2043
aI-428
aI29
aI-600
aI-18
aI-257
aI159
aI-1634
aI701
aI449
aI337
aI-1063
aI-1060
aI-388
aI179
aI-67
aI-591
aI-1010
aI522
aI456
aI-2023
aI-414
aI-24
aI332
aI173
aI-101
aI-326
aI-1091
aI-42
aI-975
aI62
aI-317
aI1138
aI607
aI1282
aI-598
aI-336
aI257
aI551
aI232
aI169
aI152
aI-1070
aI-744
aI-412
aI-843
aI114
aI348
aI877
aI575
aI-157
aI-249
aI711
aI-408
aI-509
aI-176
aI-899
aI-1768
aI-158
aI-165
aI262
aI-53
aI-399
aI-20
aI4
aI-331
aI62
aI-773
aI-565
aI-833
aI-91
aI252
aI-118
aI-560
aI-1254
aI1114
aI680
aI448
aI300
aI1682
aI-101
aI123
aI-276
aI633
aI-647
aI-554
aI-1053
aI-379
aI-431
aI375
aI407
aI743
aI-518
aI1409
aI-114
aI-1073
aI-1414
aI552
aI149
aI-1119
aI645
aI298
aI-1470
aI2088
aI-469
aI-859
aI890
aI-1106
aI595
aI-813
aI-1160
aI840
aI1639
aI600
aI141
aI-787
aI-806
aI-185
aI-1359
aI1171
aI-1039
aI-347
aI-910
aI500
aI-677
aI568
aI234
aI95
aI-189
aI-1056
aI279
aI-111
aI53
aI575
aI480
aI48
aI960
aI637
aI-1533
aI472
aI1716
aI-501
aI1378
aI-331
aI607
aI454
aI-494
aI-415
aI-237
aI375
aI375
aI-199
aI-144
aI-216
aI-861
aI226
aI278
aI635
aI-810
aI-664
aI541
aI-491
aI1631
aI349
aI-100
aI37
aI227
aI-747
aI-586
aI255
aI502
aI508
aI246
aI1468
aI274
aI-501
aI771
aI1446
aI33
aI289
aI205
aI199
aI-638
aI-30
aI-1
aI64
aI182
aI-259
aI-311
aI348
aI-903
aI-1102
aI-550
aI-618
aI1074
aI1078
aI226
aI-445
aI284
aI-36
aI-1459
aI-399
aI-89
aI-26
aI-752
aI72
aI951
aI833
aI-881
aI-886
aI846
aI1213
aI318
aI74
aI-1130
aI-1160
aI-264
aI1189
aI186
aI-344
aI321
aI248
aI1711
aI-1978
aI-24
aI524
aI-12
aI315
aI-1206
aI-494
aI5
aI32
aI513
aI609
aI1404
aI-487
aI814
aI630
aI889
aI-763
aI-474
aI992
aI799
aI1716
aI661
aI273
aI254
aI-167
aI814
aI-418
aI1333
aI392
aI-102
aI572
aI601
aI-312
aI55
aI-170
aI-742
aI325
aI118
aI800
aI298
aI-502
aI-490
aI-166
aI150
aI-798
aI-984
aI231
aI-691
aI-1200
aI-541
aI559
aI-1092
aI-401
aI14
aI272
aI-411
aI341
aI-225
aI-28
aI1009
aI-1197
aI-642
aI-855
aI72
aI-478
aI382
aI358
aI-1343
aI-18
aI45
aI-803
aI-50
aI-435
aI-247
aI-978
aI-100
aI-121
aI-5
aI-22
aI445
aI-20
aI-4
aI124
aI-771
aI-933
aI-218
aI-674
aI-517
aI-344
aI398
aI-1194
aI1594
aI1191
aI-422
aI-188
aI232
aI407
aI-967
aI-431
aI824
aI-1180
aI369
aI-650
aI1036
aI119
aI-1164
aI820
aI-1146
aI641
aI-519
aI-726
aI-418
aI-1270
aI-1632
aI623
aI34
aI330
aI2015
aI425
aI-737
aI1442
aI281
aI-384
aI-1082
aI-137
aI-269
aI-157
aI-687
aI454
aI71
aI1773
aI-469
aI591
aI-838
aI-686
aI341
aI-789
aI-912
aI746
aI-44
aI755
aI1020
aI48
aI478
aI834
aI730
aI-1019
aI-798
aI1197
aI-327
aI506
aI-645
aI503
aI326
aI162
aI694
aI-974
aI671
aI1376
aI-981
aI-554
aI442
aI-206
aI-188
aI199
aI-493
aI889
aI-138
aI1306
aI2485
aI-1080
aI1000
aI-345
aI-831
aI868
aI-395
aI1762
aI-44
aI-679
aI364
aI314
aI129
aI-1052
aI-670
aI1117
aI-178
aI-2051
aI-51
aI-622
aI-108
aI80
aI-32
aI813
aI269
aI-13
aI-385
aI-17
aI-135
aI-337
aI-283
aI50
aI-1
aI-612
aI284
aI753
aI25
aI-346
aI791
aI224
aI818
aI-1140
aI-488
aI2054
aI-657
aI1007
aI824
aI1350
aI707
aI-1187
aI803
aI373
aI-451
aI411
aI-580
aI-1182
aI-1091
aI-597
aI290
aI360
aI-28
aI522
aI241
aI-579
aI-132
aI-739
aI-1143
aI-601
aI-89
aI-91
aI-371
aI280
aI-29
aI160
aI739
aI15
aI-3
aI2009
aI-960
aI-868
aI932
aI-232
aI-331
aI1391
aI-623
aI-1441
aI-2503
aI1252
aI-1471
aI-226
aI1254
aI-1467
aI405
aI-161
aI1337
aI457
aI192
aI-1227
aI-1288
aI-117
aI671
aI1078
aI-1728
aI691
aI1009
aI826
aI329
aI1329
aI85
aI13
aI-739
aI1313
aI257
aI253
aI-593
aI-443
aI-444
aI55
aI279
aI468
aI-327
aI-266
aI-10
aI-329
aI-1462
aI-777
aI367
aI-768
aI1327
aI2131
aI1011
aI59
aI282
aI-732
aI521
aI-406
aI361
aI-759
aI8
aI-1324
aI-119
aI612
aI-715
aI778
aI-25
aI923
aI-588
aI478
aI166
aI-752
aI-309
aI-60
aI-6
aI-323
aI1308
aI351
aI91
aI-1064
aI714
aI403
aI422
aI-531
aI290
aI-126
aI-277
aI-1855
aI1025
aI1137
aI6
aI-329
aI1103
aI196
aI-784
aI-169
aI390
aI626
aI127
aI335
aI-328
aI1769
aI-933
aI570
aI-691
aI-449
aI-1113
aI427
aI135
aI-172
aI-269
aI83
aI848
aI-1104
aI949
aI22
aI1735
aI-326
aI-538
aI-1631
aI-912
aI634
aI379
aI380
aI483
aI608
aI-698
aI1930
aI-287
aI-58
aI-224
aI414
aI1363
aI1254
aI495
aI-1190
aI-652
aI631
aI378
aI-680
aI-346
aI1377
aI614
aI150
aI37
aI-1185
aI1034
aI-199
aI-1079
aI90
aI1551
aI-1584
aI-464
aI-1703
aI-750
aI-930
aI-1161
aI82
aI-23
aI416
aI71
aI-59
aI-355
aI-388
aI-305
aI-131
aI309
aI506
aI545
aI-116
aI151
aI894
aI514
aI506
aI-215
aI-638
aI201
aI-1307
aI-181
aI195
aI20
aI516
aI-1173
aI-348
aI2027
aI-573
aI60
aI-288
aI871
aI-245
aI-315
aI-377
aI335
aI-164
aI4
aI-1195
aI-614
aI-1135
aI292
aI-492
aI969
aI727
aI-328
aI-689
aI1826
aI-569
aI909
aI-1157
aI-443
aI517
aI-1035
aI-1130
aI1145
aI956
aI-1051
aI-583
aI363
aI-588
aI-968
aI30
aI-391
aI1832
aI-555
aI-945
aI-213
aI1574
aI-978
aI343
aI-313
aI530
aI-254
aI158
aI-788
aI-1508
aI-484
aI-359
aI-1295
aI-556
aI-928
aI-311
aI554
aI-368
aI494
aI-534
aI-1258
aI-730
aI-269
aI-180
aI-175
aI-124
aI-73
aI987
aI-248
aI205
aI-699
aI-244
aI-134
aI421
aI1016
aI384
aI98
aI-763
aI-364
aI-30
aI695
aI-150
aI-222
aI403
aI477
aI-770
aI-457
aI1394
aI747
aI572
aI-177
aI-1450
aI572
aI12
aI-937
aI-582
aI-542
aI-681
aI2127
aI-317
aI-608
aI685
aI-215
aI680
aI964
aI159
aI-367
aI878
aI-120
aI828
aI323
aI-1115
aI-1253
aI600
aI-557
aI-563
aI-626
aI307
aI-100
aI-141
aI-465
aI90
aI-366
aI-663
aI106
aI320
aI-230
aI665
aI-519
aI-91
aI5
aI316
aI1044
aI808
aI-116
aI1031
aI-54
aI1207
aI2
aI-831
aI215
aI-884
aI-1202
aI-273
aI242
aI888
aI-286
aI421
aI339
aI711
aI462
aI-203
aI362
aI832
aI-236
aI-1462
aI-631
aI427
aI759
aI728
aI983
aI1101
aI1194
aI-143
aI-483
aI-1292
aI-907
aI-953
aI-701
aI418
aI-938
aI496
aI513
aI-488
aI413
aI1170
aI-393
aI278
aI230
aI354
aI-107
aI716
aI15
aI398
aI1789
aI-548
aI942
aI-334
aI440
aI-100
aI455
aI2862
aI-2322
aI-52
aI1036
aI-800
aI189
aI-1115
aI216
aI-590
aI-37
aI-370
aI915
aI-520
aI-498
aI421
aI-680
aI-1584
aI1488
aI354
aI-416
aI-491
aI-787
aI-246
aI2027
aI715
aI-226
aI-753
aI510
aI-140
aI-143
aI59
aI569
aI329
aI292
aI-259
aI755
aI806
aI1398
aI-108
aI62
aI677
aI218
aI-160
aI516
aI401
aI-882
aI258
aI46
aI-566
aI976
aI-30
aI-255
aI921
aI-542
aI1033
aI339
aI610
aI-43
aI-240
aI15
aI-1463
aI1645
aI66
aI-1302
aI-9
aI-943
aI644
aI-153
aI-146
aI81
aI607
aI-327
aI434
aI881
aI-775
aI1253
aI-363
aI-910
aI-856
aI1534
aI374
aI-660
aI247
aI1553
aI1002
aI351
aI-1968
aI539
aI-879
aI-591
aI-880
aI391
aI905
aI-87
aI482
aI937
aI187
aI921
aI-123
aI-283
aI95
aI-84
aI-532
aI446
aI-17
aI-700
aI-394
aI-1280
aI-648
aI-293
aI547
aI-814
aI-448
aI-1279
aI-335
aI464
aI-683
aI-830
aI1243
aI352
aI-946
aI146
aI238
aI-509
aI-605
aI-166
aI1428
aI2079
aI-445
aI-661
aI-705
aI-412
aI738
aI-498
aI-1688
aI-245
aI222
aI-878
aI-1440
aI-414
aI-766
aI-807
aI394
aI259
aI977
aI340
aI-59
aI-1491
aI782
aI-743
aI-28
aI-6
aI-1269
aI171
aI-109
aI-716
aI-842
aI1252
aI511
aI357
aI158
aI1312
aI-32
aI-79
aI-400
aI-605
aI-474
aI-1011
aI-1290
aI853
aI1459
aI491
aI-207
aI95
aI-254
aI-404
aI650
aI779
aI116
aI-1
aI149
aI105
aI1497
aI180
aI544
aI716
aI223
aI572
aI-1389
aI394
aI414
aI-633
aI-832
aI-1377
aI48
aI-174
aI-183
aI616
aI-1010
aI-800
aI-1152
aI523
aI616
aI-452
aI-1201
aI-612
aI1685
aI208
aI-1601
aI-395
aI990
aI-97
aI17
aI-201
aI279
aI-711
aI-569
aI1088
aI-858
aI1561
aI-368
aI1174
aI-718
aI152
aI-11
aI-294
aI49
aI106
aI397
aI1674
aI-655
aI1230
aI568
aI209
aI-716
aI1220
aI-635
aI241
aI-272
aI1573
aI432
aI41
aI-754
aI1221
aI31
aI436
aI-235
aI-97
aI2151
aI-593
aI825
aI329
aI-393
aI773
aI759
aI-895
aI-331
aI122
aI-132
aI197
aI-181
aI-1123
aI-373
aI-303
aI-1041
aI747
aI-797
aI1153
aI73
aI-12
aI-42
aI-413
aI1695
aI-51
aI412
aI-524
aI1153
aI-947
aI-808
aI2079
aI-124
aI840
aI544
aI186
aI-588
aI-132
aI815
aI1275
aI-315
aI-748
aI43
aI250
aI-655
aI49
aI-278
aI546
aI30
aI-906
aI-23
aI-1
aI-1046
aI346
aI534
aI0
aI-1044
aI-613
aI784
aI904
aI-290
aI1497
aI1331
aI-750
aI-673
aI78
aI-411
aI-30
aI-1070
aI1433
aI-1023
aI-455
aI-1254
aI1377
aI-1333
aI-166
aI-160
aI-876
aI-635
aI444
aI700
aI370
aI-848
aI-715
aI717
aI17
aI559
aI-1198
aI1270
aI-1103
aI-168
aI-192
aI-552
aI214
aI31
aI441
aI-636
aI1296
aI378
aI-118
aI101
aI529
aI-665
aI590
aI1472
aI441
aI-1701
aI-1406
aI1145
aI-894
aI852
aI1613
aI357
aI1146
aI485
aI-291
aI-665
aI1336
aI-108
aI1799
aI-140
aI-599
aI-279
aI91
aI976
aI527
aI-1468
aI248
aI1548
aI-1377
aI-2228
aI55
aI630
aI-742
aI-1267
aI-338
aI1151
aI666
aI654
aI-83
aI397
aI-177
aI-1262
aI-969
aI-324
aI-581
aI-273
aI-737
aI-116
aI349
aI-1215
aI726
aI-1091
aI936
aI154
aI291
aI-1837
aI121
aI1705
aI-160
aI-887
aI-1548
aI713
aI35
aI-733
aI-275
aI-525
aI78
aI564
aI-959
aI6
aI2
aI1068
aI-1503
aI-459
aI-460
aI-964
aI-1534
aI-528
aI-1146
aI275
aI-811
aI118
aI575
aI1278
aI-48
aI756
aI187
aI1017
aI-1018
aI973
aI-375
aI1546
aI-859
aI744
aI1524
aI-478
aI632
aI751
aI-54
aI1641
aI130
aI-208
aI219
aI355
aI-145
aI-150
aI1040
aI572
aI-628
aI134
aI-338
aI215
aI-245
aI-47
aI-1298
aI-1309
aI-443
aI178
aI-881
aI356
aI1080
aI-581
aI420
aI214
aI747
aI50
aI-974
aI597
aI-917
aI-735
aI-597
aI-359
aI988
aI572
aI-87
aI740
aI435
aI116
aI65
aI-17
aI1456
aI89
aI-746
aI-1360
aI-581
aI280
aI146
aI567
aI1553
aI1917
aI1214
aI1126
aI1274
aI-1222
aI-1521
aI35
aI-623
aI241
aI-663
aI1072
aI-636
aI-1031
aI929
aI140
aI-214
aI-722
aI166
aI-518
aI-726
aI-1122
aI-1115
aI435
aI541
aI-854
aI643
aI661
aI177
aI-117
aI178
aI674
aI402
aI-1264
aI-1487
aI-430
aI-128
aI-240
aI70
aI-370
aI188
aI11
aI-1
aI287
aI-1
aI-43
aI-358
aI-739
aI-378
aI1248
aI-170
aI-1166
aI-2213
aI92
aI-664
aI-68
aI-242
aI-1292
aI555
aI786
aI-850
aI-1229
aI965
aI-636
aI961
aI798
aI149
aI-298
aI-12
aI-98
aI1730
aI-93
aI-289
aI-993
aI-663
aI-211
aI232
aI19
aI400
aI-381
aI597
aI-243
aI1412
aI1281
aI-225
aI158
aI-502
aI-765
aI-781
aI759
aI-1623
aI446
aI485
aI-1580
aI717
aI-81
aI-557
aI252
aI119
aI-506
aI-224
aI-613
aI1644
aI-645
aI1338
aI-813
aI11
aI-201
aI-674
aI1163
aI-1340
aI1474
aI-1236
aI-1066
aI-302
aI696
aI-286
aI841
aI-542
aI-924
aI-306
aI-171
aI988
aI109
aI-715
aI-86
aI-1774
aI-788
aI1821
aI186
aI1554
aI151
aI-977
aI-653
aI-276
aI-375
aI-1437
aI201
aI231
aI561
aI-711
aI879
aI490
aI318
aI290
aI-1593
aI-75
aI1451
aI658
aI331
aI513
aI-262
aI0
aI-96
aI-532
aI-934
aI97
aI436
aI343
aI500
aI23
aI-196
aI8
aI935
aI681
aI214
aI-391
aI1708
aI1767
aI-1495
aI-97
aI-312
aI7
aI-1236
aI-60
aI1228
aI-550
aI-130
aI1557
aI189
aI208
aI422
aI1019
aI1549
aI35
aI-965
aI-1204
aI540
aI451
aI-907
aI-228
aI109
aI-160
aI954
aI76
aI-396
aI-268
aI-15
aI-250
aI-342
aI-771
aI1267
aI-478
aI-304
aI388
aI-689
aI-285
aI1079
aI-1349
aI-1221
aI-198
aI-1538
aI59
aI-1104
aI1094
aI-458
aI-1126
aI1373
aI41
aI-1096
aI-1032
aI-1118
aI-350
aI-222
aI1009
aI40
aI-546
aI435
aI928
aI-869
aI-1928
aI-1231
aI261
aI2135
aI598
aI284
aI712
aI222
aI890
aI1234
aI1417
aI737
aI589
aI65
aI-119
aI-593
aI115
aI-504
aI-119
aI-69
aI533
aI700
aI212
aI309
aI-723
aI734
aI-893
aI462
aI-125
aI1385
aI-180
aI313
aI815
aI276
aI1176
aI-585
aI-689
aI-27
aI-496
aI-142
aI-203
aI776
aI-1533
aI-20
aI391
aI700
aI-1647
aI627
aI325
aI-428
aI-467
aI-33
aI-2
aI-2146
aI748
aI-1497
aI800
aI70
aI618
aI527
aI-494
aI-608
aI1270
aI-292
aI777
aI-164
aI648
aI-66
aI-1089
aI72
aI203
aI1640
aI-1363
aI428
aI-178
aI717
aI-2250
aI173
aI981
aI710
aI1118
aI952
aI577
aI217
aI-595
aI-27
aI-326
aI219
aI258
aI636
aI-433
aI-355
aI-1343
aI1154
aI-686
aI-273
aI1204
aI31
aI1031
aI461
aI683
aI-438
aI-495
aI-328
aI2357
aI-821
aI-51
aI563
aI211
aI1153
aI238
aI27
aI202
aI1878
aI-266
aI-1163
aI1007
aI-1203
aI-422
aI-1345
aI-786
aI105
aI326
aI-744
aI656
aI570
aI-1120
aI598
aI157
aI21
aI470
aI-533
aI1261
aI105
aI-671
aI312
aI-690
aI-1096
aI-196
aI-792
aI897
aI547
aI-1400
aI711
aI-462
aI-194
aI-915
aI-1965
aI-657
aI-130
aI490
aI-44
aI-605
aI-968
aI-1402
aI-60
aI325
aI1244
aI91
aI1002
aI1366
aI-720
aI100
aI-515
aI-491
aI-198
aI-153
aI527
aI542
aI622
aI-323
aI-25
aI-3
aI264
aI-441
aI-42
aI818
aI247
aI602
aI-286
aI1282
aI612
aI144
aI-570
aI215
aI69
aI-1149
aI-1293
aI-686
aI697
aI-715
aI-529
aI-992
aI-829
aI815
aI-729
aI-2058
aI1295
aI-263
aI-648
aI-338
aI413
aI-185
aI-758
aI1014
aI490
aI1129
aI230
aI589
aI100
aI503
aI227
aI-283
aI-869
aI508
aI1115
aI1015
aI-1135
aI1234
aI800
aI945
aI395
aI-910
aI858
aI405
aI628
aI438
aI374
aI-1095
aI397
aI-52
aI1541
aI-835
aI1102
aI756
aI1122
aI-1155
aI-8
aI-842
aI1002
aI693
aI146
aI341
aI-768
aI-56
aI874
aI-1245
aI-933
aI863
aI41
aI-951
aI-232
aI-320
aI850
aI757
aI185
aI103
aI-76
aI350
aI203
aI-526
aI135
aI-283
aI-458
aI850
aI350
aI54
aI-532
aI-1039
aI-2236
aI600
aI-159
aI-441
aI322
aI-1141
aI887
aI-983
aI-153
aI-94
aI268
aI472
aI980
aI-805
aI231
aI663
aI601
aI775
aI-434
aI-321
aI666
aI-122
aI83
aI0
aI489
aI971
aI76
aI901
aI465
aI1102
aI-402
aI81
aI-1881
aI833
aI1514
aI-309
aI-74
aI840
aI1522
aI-540
aI-539
aI-401
aI1017
aI-771
aI-298
aI60
aI-282
aI-1802
aI-1153
aI830
aI802
aI217
aI-286
aI-564
aI-268
aI540
aI670
aI240
aI-925
aI1675
aI-322
aI-502
aI470
aI-233
aI83
aI1257
aI433
aI-879
aI135
aI-1214
aI1153
aI1491
aI461
aI407
aI2
aI274
aI857
aI-102
aI128
aI-1551
aI1067
aI-280
aI887
aI-866
aI1608
aI433
aI651
aI1263
aI-1190
aI-40
aI1191
aI-806
aI275
aI678
aI341
aI1448
aI206
aI-810
aI398
aI1147
aI-1389
aI-149
aI705
aI-669
aI716
aI-159
aI-339
aI1227
aI1372
aI-374
aI-1242
aI796
aI899
aI-856
aI-256
aI-335
aI369
aI1324
aI835
aI855
aI230
aI1428
aI297
aI122
aI375
aI-180
aI-409
aI-533
aI-395
aI-334
aI-1085
aI665
aI558
aI172
aI-360
aI959
aI850
aI-424
aI347
aI689
aI-121
aI-412
aI-80
aI3
aI898
aI814
aI1051
aI-47
aI-71
aI-402
aI1107
aI-1041
aI-1096
aI-552
aI-275
aI-148
aI764
aI1280
aI-1112
aI-1294
aI-639
aI177
aI170
aI-160
aI-1786
aI346
aI-514
aI-2129
aI-38
aI-371
aI86
aI837
aI-661
aI888
aI-665
aI-666
aI840
aI53
aI464
aI-1144
aI182
aI-332
aI-4
aI-74
aI832
aI-278
aI-494
aI-72
aI1144
aI710
aI1663
aI640
aI823
aI980
aI-836
aI545
aI279
aI405
aI810
aI-749
aI483
aI-523
aI875
aI-305
aI620
aI-215
aI-1632
aI-94
aI-633
aI-884
aI-791
aI80
aI-1275
aI1471
aI51
aI-243
aI12
aI-587
aI431
aI-1062
aI-670
aI-855
aI-427
aI-819
aI624
aI-2892
aI1417
aI1664
aI-764
aI-311
aI365
aI2082
aI1156
aI331
aI-95
aI-1054
aI-1465
aI-123
aI-122
aI1145
aI-1187
aI574
aI86
aI-138
aI-1054
aI-791
aI-529
aI475
aI573
aI637
aI-202
aI1283
aI566
aI-912
aI74
aI416
aI-600
aI-60
aI1490
aI463
aI-361
aI-473
aI-214
aI10
aI-191
aI1212
aI901
aI10
aI1214
aI1605
aI-1308
aI1092
aI404
aI-457
aI58
aI-472
aI-826
aI-477
aI924
aI1825
aI-738
aI-995
aI-801
aI363
aI1404
aI493
aI-1548
aI-1173
aI-302
aI527
aI-1247
aI1033
aI668
aI320
aI-1596
aI812
aI-458
aI932
aI-143
aI49
aI-868
aI-39
aI-632
aI424
aI-338
aI-348
aI548
aI-767
aI-504
aI698
aI570
aI305
aI-1386
aI1343
aI224
aI1161
aI-619
aI-209
aI-217
aI505
aI-821
aI-275
aI237
aI1013
aI1046
aI-1428
aI-389
aI-1277
aI-554
aI-105
aI930
aI-245
aI1570
aI-48
aI-70
aI557
aI101
aI-246
aI214
aI1776
aI-970
aI1032
aI160
aI72
aI-1231
aI247
aI768
aI333
aI-826
aI-605
aI-48
aI-601
aI-1538
aI-1494
aI-62
aI657
aI704
aI-265
aI946
aI873
aI1118
aI294
aI-362
aI-173
aI1378
aI-990
aI-366
aI-1479
aI69
aI-833
aI-375
aI129
aI-1627
aI422
aI-575
aI416
aI302
aI-492
aI662
aI285
aI-242
aI682
aI-88
aI0
aI412
aI-512
aI-1064
aI14
aI678
aI-119
aI-941
aI183
aI-537
aI411
aI-549
aI-741
aI392
aI-2
aI-1161
aI56
aI1704
aI-495
aI-1026
aI24
aI80
aI-184
aI775
aI1203
aI-352
aI-862
aI-93
aI796
aI-87
aI-384
aI309
aI1172
aI87
aI-115
aI169
aI1452
aI415
aI715
aI1
aI809
aI804
aI-657
aI521
aI-948
aI724
aI-117
aI303
aI149
aI-632
aI773
aI228
aI967
aI1063
aI177
aI549
aI1131
aI-251
aI653
aI653
aI521
aI447
aI374
aI-506
aI-114
aI-257
aI-703
aI-127
aI-1110
aI-368
aI-1686
aI72
aI252
aI-850
aI885
aI416
aI-463
aI-641
aI-623
aI-538
aI463
aI-767
aI-96
aI288
aI-726
aI-173
aI474
aI123
aI151
aI985
aI1041
aI-297
aI-774
aI-627
aI-633
aI196
aI-79
aI111
aI-60
aI-631
aI-906
aI-420
aI-515
aI-29
aI-132
aI594
aI288
aI-1130
aI405
aI-302
aI-275
aI-230
aI-900
aI-775
aI-242
aI14
aI-348
aI44
aI350
aI-117
aI10
aI-660
aI-1026
aI-1297
aI1613
aI-764
aI19
aI-729
aI298
aI16
aI1038
aI784
aI192
aI-769
aI362
aI1211
aI-1026
aI94
aI-513
aI-486
aI-1597
aI-654
aI516
aI-548
aI442
aI-480
aI128
aI400
aI705
aI465
aI529
aI-1583
aI-419
aI-1221
aI902
aI-1146
aI1371
aI417
aI-1383
aI-419
aI549
aI165
aI-38
aI338
aI-1217
aI-145
aI68
aI982
aI2118
aI196
aI1601
aI-327
aI325
aI1948
aI69
aI-617
aI701
aI561
aI729
aI1519
aI159
aI1289
aI-654
aI-602
aI554
aI-231
aI250
aI134
aI172
aI734
aI25
aI-73
aI173
aI-10
aI2055
aI263
aI1070
aI464
aI-129
aI-631
aI25
aI915
aI1291
aI-730
aI-1043
aI1065
aI-443
aI-1273
aI236
aI-148
aI974
aI-630
aI-520
aI-444
aI1041
aI862
aI609
aI-208
aI1387
aI277
aI-846
aI82
aI-1113
aI812
aI-285
aI-500
aI-5
aI-556
aI848
aI-47
aI-265
aI-799
aI105
aI-86
aI-657
aI-267
aI357
aI-495
aI-462
aI38
aI-7
aI-23
aI-62
aI46
aI974
aI976
aI1275
aI-641
aI791
aI176
aI-1181
aI34
aI78
aI889
aI449
aI-2878
aI766
aI873
aI-530
aI-616
aI-701
aI-681
aI-77
aI-1178
aI-2341
aI1642
aI118
aI-743
aI685
aI371
aI346
aI-590
aI1271
aI-74
aI214
aI596
aI413
aI497
aI1000
aI-70
aI332
aI-264
aI-919
aI324
aI500
aI113
aI1409
aI928
aI299
aI76
aI-660
aI972
aI38
aI-1223
aI-1348
aI2154
aI-47
aI168
aI739
aI-588
aI-63
aI-819
aI1301
aI-144
aI-835
aI364
aI-1886
aI127
aI-137
aI868
aI653
aI-622
aI167
aI1156
aI-334
aI654
aI15
aI-87
aI-1179
aI567
aI746
aI465
aI-539
aI-74
aI490
aI-1569
aI829
aI913
aI-320
aI212
aI-530
aI-1520
aI-1850
aI-936
aI178
aI-771
aI-1308
aI-1153
aI-1229
aI-368
aI129
aI-611
aI-272
aI971
aI-77
aI26
aI-94
aI-826
aI19
aI504
aI-1253
aI470
aI714
aI-423
aI544
aI217
aI1026
aI-177
aI-270
aI-6
aI1
aI-591
aI-443
aI-155
aI286
aI-286
aI-207
aI387
aI-558
aI-476
aI-289
aI185
aI1164
aI-31
aI-799
aI-414
aI-1582
aI362
aI-1460
aI-427
aI1031
aI-422
aI-737
aI-576
aI414
aI1130
aI118
aI685
aI-405
aI-502
aI464
aI2081
aI-360
aI-92
aI185
aI-548
aI596
aI824
aI2419
aI116
aI276
aI-535
aI61
aI-1663
aI-439
aI1021
aI-25
aI-416
aI1425
aI810
aI236
aI-104
aI-47
aI189
aI716
aI388
aI1524
aI-1320
aI438
aI673
aI-845
aI-936
aI-4
aI-638
aI-1700
aI305
aI523
aI-44
aI-133
aI-1
aI-798
aI319
aI1865
aI579
aI-385
aI458
aI-535
aI-347
aI642
aI-1471
aI66
aI40
aI225
aI1392
aI-322
aI-157
aI1602
aI-2348
aI-558
aI1062
aI791
aI1161
aI-1412
aI-83
aI580
aI-406
aI-1290
aI-1010
aI381
aI-269
aI1146
aI-387
aI-491
aI-726
aI19
aI45
aI-344
aI1269
aI1342
aI2066
aI-135
aI-269
aI-206
aI10
aI403
aI-392
aI150
aI149
aI-300
aI131
aI-9
aI182
aI643
aI-67
aI-237
aI22
aI1224
aI-399
aI718
aI-272
aI606
aI-28
aI-443
aI-184
aI1604
aI1333
aI1612
aI-136
aI422
aI1134
aI1462
aI851
aI-837
aI1201
aI463
aI-150
aI504
aI-1760
aI376
aI-749
aI-1272
aI1316
aI-78
aI229
aI-1563
aI291
aI1326
aI-109
aI-2414
aI58
aI93
aI670
aI-1111
aI687
aI53
aI1217
aI270
aI682
aI-751
aI-776
aI-1932
aI498
aI412
aI773
aI-214
aI434
aI-50
aI755
aI-1711
aI-838
aI-1716
aI464
aI383
aI-747
aI1410
aI-908
aI-477
aI457
aI301
aI-1136
aI68
aI-285
aI-76
aI-826
aI471
aI-890
aI-417
aI-402
aI-1137
aI-561
aI-359
aI969
aI-872
aI237
aI307
aI482
aI-149
aI1007
aI2146
aI246
aI-670
aI-90
aI-1367
aI-2176
aI1585
aI1166
aI1310
aI279
aI-861
aI1461
aI-967
aI1227
aI399
aI-235
aI-433
aI240
aI216
aI-1672
aI1
aI-215
aI133
aI767
aI131
aI1
aI-1058
aI250
aI330
aI-307
aI-85
aI-300
aI22
aI-126
aI1248
aI150
aI-1314
aI-1328
aI-251
aI1087
aI382
aI-772
aI-261
aI814
aI-942
aI199
aI1214
aI783
aI-131
aI-1301
aI-317
aI586
aI956
aI434
aI-319
aI254
aI-1592
aI117
aI272
aI202
aI553
aI504
aI-833
aI747
aI-361
aI583
aI-469
aI-222
aI-1003
aI523
aI-563
aI-1669
aI-1767
aI571
aI-2627
aI689
aI402
aI102
aI-266
aI506
aI-517
aI1755
aI-780
aI72
aI-383
aI-1667
aI368
aI-826
aI-836
aI1279
aI26
aI-332
aI424
aI792
aI-125
aI582
aI314
aI-226
aI1413
aI108
aI1255
aI213
aI1110
aI1192
aI671
aI1372
aI375
aI-549
aI-560
aI595
aI1126
aI342
aI589
aI-552
aI-542
aI398
aI-1427
aI-107
aI182
aI-148
aI1282
aI500
aI-1256
aI448
aI-1810
aI-214
aI1303
aI-1104
aI-81
aI-96
aI230
aI-825
aI-684
aI-531
aI-79
aI-1218
aI858
aI-403
aI-758
aI292
aI-758
aI-317
aI-16
aI-176
aI-1264
aI-55
aI435
aI852
aI-414
aI846
aI325
aI-19
aI13
aI-560
aI75
aI-887
aI854
aI-203
aI-408
aI351
aI320
aI-705
aI1237
aI1093
aI525
aI-638
aI1134
aI912
aI-1394
aI-1554
aI-24
aI335
aI-1252
aI1030
aI308
aI1167
aI-1570
aI-277
aI11
aI1758
aI1283
aI543
aI-444
aI-10
aI-1012
aI12
aI-692
aI258
aI599
aI-565
aI30
aI92
aI-809
aI540
aI-969
aI20
aI-803
aI-270
aI888
aI-9
aI104
aI1338
aI835
aI13
aI-214
aI-1968
aI1231
aI52
aI1192
aI313
aI1547
aI-1085
aI1088
aI594
aI-1808
aI92
aI1447
aI-1053
aI-1005
aI837
aI-1395
aI1091
aI-474
aI-88
aI2549
aI495
aI-691
aI314
aI-222
aI-214
aI1393
aI331
aI709
aI-1389
aI-241
aI-28
aI475
aI-956
aI-107
aI-667
aI1456
aI-470
aI-1028
aI-678
aI127
aI1375
aI-356
aI362
aI645
aI1512
aI-521
aI-578
aI-193
aI-910
aI-839
aI-669
aI216
aI-1182
aI-32
aI346
aI886
aI-1097
aI1090
aI-61
aI-1042
aI-503
aI-79
aI843
aI166
aI120
aI-62
aI-49
aI-7
aI-1291
aI-275
aI-110
aI-387
aI48
aI243
aI-179
aI-725
aI141
aI953
aI-753
aI169
aI-196
aI-430
aI591
aI1413
aI146
aI231
aI645
aI-452
aI213
aI1234
aI-1423
aI-247
aI-203
aI90
aI-159
aI-273
aI-204
aI879
aI75
aI256
aI889
aI-358
aI472
aI-717
aI1832
aI-580
aI-718
aI-761
aI535
aI88
aI627
aI1658
aI619
aI842
aI156
aI57
aI-2701
aI-1571
aI203
aI1725
aI-54
aI-236
aI-1478
aI-1092
aI884
aI-1669
aI-633
aI1113
aI81
aI282
aI-293
aI1149
aI-52
aI867
aI-141
aI-885
aI-2651
aI300
aI453
aI-980
aI-10
aI563
aI-321
aI2048
aI869
aI43
aI-1027
aI26
aI1071
aI198
aI-245
aI649
aI1480
aI-349
aI740
aI-986
aI-419
aI534
aI378
aI-81
aI1603
aI-561
aI-156
aI-204
aI1007
aI53
aI-650
aI361
aI438
aI377
aI259
aI187
aI-340
aI1317
aI1537
aI-128
aI-907
aI-154
aI585
aI1001
aI0
aI168
aI-100
aI265
aI49
aI-173
aI0
aI-1
aI223
aI121
aI-258
aI-19
aI620
aI-26
aI-1031
aI-251
aI426
aI-108
aI848
aI191
aI-1093
aI-332
aI-102
aI436
aI-686
aI-758
aI-594
aI1541
aI-790
aI417
aI-1791
aI-1008
aI-152
aI1052
aI818
aI-679
aI-67
aI-822
aI-920
aI-431
aI-377
aI634
aI-510
aI24
aI-640
aI1433
aI-1632
aI565
aI391
aI882
aI997
aI753
aI-43
aI-456
aI-652
aI-54
aI-465
aI1190
aI-36
aI1619
aI-1057
aI868
aI-688
aI-885
aI79
aI1448
aI-989
aI976
aI-1491
aI-190
aI65
aI17
aI-383
aI-568
aI-42
aI-167
aI-325
aI-73
aI-406
aI408
aI-1273
aI368
aI1281
aI1239
aI797
aI1782
aI852
aI300
aI-520
aI699
aI-296
aI-1500
aI-1250
aI289
aI-579
aI-901
aI-1105
aI-239
aI-465
aI-248
aI1113
aI-551
aI-277
aI-465
aI-752
aI-577
aI-850
aI1129
aI164
aI-231
aI-445
aI151
aI-312
aI-621
aI1148
aI761
aI-726
aI-499
aI-123
aI-652
aI-374
aI-664
aI-445
aI1188
aI-604
aI253
aI295
aI-21
aI955
aI-615
aI-352
aI769
aI852
aI1095
aI-391
aI-159
aI-27
aI711
aI586
aI380
aI152
aI-73
aI1102
aI-391
aI91
aI898
aI-103
aI838
aI-450
aI1083
aI-863
aI-742
aI-201
aI617
aI-144
aI-228
aI-573
aI-346
aI-1171
aI-691
aI-493
aI-846
aI-493
aI1009
aI-607
aI-978
aI41
aI642
aI-106
aI331
aI409
aI1083
aI1216
aI-1089
aI63
aI1647
aI-401
aI-535
aI1639
aI-1021
aI-1031
aI-502
aI-597
aI-405
aI-607
aI761
aI-208
aI820
aI-1271
aI-352
aI408
aI634
aI-378
aI-1098
aI118
aI-1597
aI579
aI-286
aI160
aI1031
aI-455
aI135
aI167
aI-8
aI-527
aI-1270
aI896
aI-279
aI59
aI469
aI-373
aI806
aI-38
aI-376
aI-847
aI471
aI-2270
aI205
aI1484
aI-544
aI-124
aI-851
aI1093
aI395
aI465
aI555
aI941
aI-109
aI-542
aI495
aI57
aI-670
aI-589
aI-716
aI-1401
aI-791
aI-592
aI175
aI607
aI664
aI-17
aI-173
aI56
aI-298
aI-182
aI-180
aI-46
aI-1
aI911
aI-824
aI-132
aI141
aI-430
aI-1623
aI-644
aI-1669
aI-435
aI-1273
aI784
aI-929
aI-41
aI-206
aI-641
aI476
aI1098
aI-990
aI-1079
aI891
aI-474
aI696
aI-398
aI280
aI-1011
aI1975
aI-56
aI-823
aI-307
aI192
aI-1045
aI-981
aI842
aI176
aI527
aI227
aI351
aI-399
aI572
aI633
aI-8
aI353
aI-314
aI792
aI1720
aI240
aI936
aI591
aI-825
aI1045
aI844
aI546
aI-357
aI1129
aI-150
aI-1473
aI280
aI-927
aI-191
aI288
aI-831
aI1174
aI-509
aI-37
aI-263
aI-74
aI-27
aI-1030
aI-1070
aI843
aI340
aI-1871
aI-377
aI94
aI-80
aI928
aI576
aI284
aI-695
aI31
aI2172
aI249
aI484
aI313
aI636
aI435
aI-441
aI686
aI605
aI-325
aI-453
aI-1034
aI-508
aI-570
aI797
aI499
aI-1177
aI622
aI131
aI276
aI457
aI1965
aI898
aI246
aI955
aI77
aI-87
aI-145
aI333
aI-867
aI1084
aI1224
aI-512
aI-74
aI115
aI1115
aI-231
aI-333
aI-46
aI5
aI-526
aI1570
aI381
aI-584
aI120
aI-937
aI605
aI742
aI832
aI-475
aI-236
aI-1150
aI-1008
aI-818
aI-89
aI1176
aI-616
aI-715
aI-495
aI27
aI267
aI164
aI-1271
aI-810
aI-134
aI266
aI-859
aI-489
aI-403
aI486
aI362
aI20
aI-552
aI15
aI414
aI-669
aI-217
aI-215
aI335
aI335
aI-10
aI-2424
aI286
aI-1229
aI463
aI1259
aI1836
aI337
aI-1555
aI-1080
aI1696
aI724
aI-646
aI461
aI853
aI-1086
aI785
aI-132
aI-340
aI-456
aI-40
aI-1124
aI-277
aI-433
aI107
aI154
aI400
aI60
aI-1380
aI-394
aI-220
aI620
aI863
aI-328
aI-696
aI70
aI1347
aI-28
aI-657
aI-1071
aI-499
aI-410
aI2834
aI1273
aI-109
aI291
aI692
aI491
aI623
aI-209
aI1060
aI-724
aI-1435
aI740
aI711
aI-867
aI160
aI-644
aI1914
aI353
aI469
aI-1122
aI698
aI11
aI-722
aI222
aI-771
aI-384
aI-159
aI-123
aI1003
aI90
aI429
aI625
aI742
aI-41
aI64
aI832
aI95
aI0
aI790
aI2129
aI-14
aI-1689
aI1185
aI-94
aI-924
aI-7
aI715
aI649
aI-227
aI-1175
aI-1000
aI667
aI-289
aI290
aI322
aI872
aI-147
aI1073
aI1061
aI-102
aI372
aI117
aI-330
aI-1082
aI-388
aI-591
aI526
aI708
aI-761
aI370
aI2135
aI260
aI-740
aI534
aI-41
aI432
aI1095
aI-590
aI-174
aI-1402
aI-281
aI-111
aI123
aI103
aI804
aI-659
aI78
aI-733
aI588
aI6
aI256
aI901
aI931
aI-307
aI342
aI-423
aI1422
aI-1089
aI146
aI-1036
aI314
aI-707
aI238
aI950
aI271
aI-290
aI-738
aI132
aI-212
aI-167
aI-100
aI-1078
aI-715
aI419
aI47
aI58
aI202
aI-861
aI-751
aI-1306
aI520
aI976
aI809
aI-1399
aI1284
aI-104
aI545
aI-555
aI757
aI61
aI836
aI272
aI-871
aI-14
aI-177
aI1161
aI118
aI-494
aI153
aI341
aI-692
aI-401
aI-7
aI-1501
aI-98
aI-1411
aI-200
aI432
aI611
aI152
aI-75
aI346
aI62
aI7
aI424
aI815
aI-85
aI14
aI-327
aI-602
aI364
aI1404
aI75
aI-230
aI1181
aI-744
aI-475
aI1106
aI97
aI2099
aI-3
aI-339
aI204
aI-1052
aI-354
aI1746
aI887
aI-1159
aI-2292
aI278
aI-551
aI184
aI-260
aI-335
aI951
aI-1104
aI-38
aI-168
aI723
aI-325
aI-179
aI639
aI500
aI-1204
aI378
aI-870
aI-1
aI15
aI-1009
aI2420
aI-1043
aI1955
aI-1140
aI1083
aI-1303
aI2189
aI-1017
aI-395
aI-368
aI-1136
aI328
aI-781
aI1252
aI-625
aI-274
aI56
aI-206
aI-403
aI-377
aI-777
aI267
aI998
aI-714
aI-1149
aI-1139
aI310
aI-1505
aI1163
aI-565
aI-1200
aI-600
aI40
aI363
aI-1008
aI620
aI263
aI1
aI-328
aI113
aI39
aI-1084
aI754
aI-231
aI-149
aI-183
aI109
aI-506
aI1204
aI526
aI1432
aI-596
aI157
aI-137
aI-344
aI-959
aI1110
aI432
aI243
aI-197
aI231
aI1444
aI62
aI-112
aI895
aI-27
aI1425
aI495
aI-719
aI304
aI236
aI-35
aI-469
aI189
aI112
aI-233
aI-926
aI78
aI-13
aI-615
aI-1400
aI-1105
aI-564
aI-254
aI486
aI-1659
aI882
aI-1007
aI410
aI1260
aI-148
aI-373
aI533
aI1423
aI1068
aI-164
aI1115
aI-154
aI-532
aI-857
aI-795
aI-1364
aI-947
aI-953
aI-324
aI-597
aI-524
aI-476
aI-404
aI817
aI-584
aI-969
aI-723
aI-273
aI280
aI-174
aI-827
aI73
aI-434
aI-985
aI538
aI-809
aI-4
aI136
aI-739
aI-1019
aI77
aI1002
aI-157
aI-941
aI-462
aI-475
aI-1615
aI435
aI-727
aI596
aI-316
aI-1960
aI-341
aI-1627
aI1015
aI-847
aI116
aI-556
aI-344
aI-1733
aI967
aI-838
aI-773
aI1073
aI716
aI-1627
aI1771
aI1281
aI874
aI963
aI-837
aI1543
aI458
aI-525
aI573
aI-1138
aI-568
aI42
aI-200
aI-202
aI-446
aI-1033
aI593
aI-466
aI-1110
aI-996
aI1089
aI1057
aI296
aI1875
aI-1221
aI-1237
aI880
aI-787
aI-504
aI-423
aI-74
aI-929
aI627
aI-215
aI413
aI91
aI-842
aI-360
aI-666
aI131
aI-1201
aI-189
aI-16
aI-863
aI-230
aI224
aI-16
aI-908
aI-38
aI938
aI765
aI-583
aI187
aI909
aI499
aI567
aI853
aI1430
aI161
aI-1799
aI-424
aI-19
aI240
aI-1847
aI392
aI355
aI-2831
aI-1826
aI928
aI-203
aI443
aI147
aI-329
aI306
aI-419
aI19
aI-868
aI-826
aI-1163
aI837
aI-231
aI1003
aI-1032
aI-78
aI-1325
aI375
aI617
aI-130
aI338
aI1292
aI466
aI-997
aI1519
aI1960
aI117
aI-228
aI277
aI477
aI-952
aI187
aI-1736
aI-466
aI-789
aI77
aI165
aI-138
aI985
aI-802
aI163
aI775
aI792
aI-529
aI16
aI-262
aI738
aI122
aI477
aI-1138
aI-946
aI-125
aI396
aI-1144
aI478
aI563
aI-1080
aI145
aI-790
aI486
aI-1111
aI235
aI697
aI-505
aI-503
aI1152
aI-220
aI-747
aI515
aI-1002
aI863
aI1290
aI823
aI347
aI376
aI1030
aI-1027
aI121
aI151
aI-362
aI16
aI1010
aI-264
aI-1118
aI1390
aI574
aI36
aI-684
aI-536
aI111
aI1249
aI-631
aI1052
aI-691
aI283
aI102
aI-847
aI100
aI-3
aI1180
aI652
aI792
aI44
aI-1436
aI-834
aI293
aI565
aI1456
aI-1669
aI-565
aI-320
aI-438
aI-566
aI-669
aI-268
aI186
aI-805
aI-1236
aI1996
aI-146
aI-444
aI-120
aI894
aI-602
aI1094
aI-125
aI-634
aI-984
aI-436
aI894
aI-356
aI-1504
aI731
aI262
aI-362
aI-537
aI2048
aI-272
aI869
aI134
aI1238
aI1221
aI489
aI-412
aI-434
aI-583
aI-676
aI1651
aI-564
aI290
aI57
aI861
aI2033
aI-406
aI-722
aI-22
aI167
aI168
aI-1055
aI-664
aI127
aI-980
aI-618
aI938
aI-530
aI234
aI245
aI721
aI-672
aI1225
aI250
aI388
aI-15
aI234
aI-266
aI-378
aI-978
aI-1809
aI-172
aI1458
aI474
aI268
aI-41
aI151
aI1464
aI-24
aI-138
aI-377
aI679
aI731
aI-234
aI-520
aI1320
aI687
aI-673
aI-1773
aI-657
aI1235
aI865
aI363
aI403
aI75
aI124
aI384
aI703
aI1084
aI-544
aI937
aI663
aI-231
aI301
aI135
aI1002
aI-831
aI-322
aI-79
aI548
aI227
aI-1
aI-896
aI88
aI134
aI-478
aI8
aI1033
aI-1415
aI558
aI824
aI-771
aI384
aI-78
aI-988
aI-386
aI1766
aI-16
aI-1186
aI113
aI1140
aI153
aI-201
aI-296
aI-616
aI-1297
aI-257
aI400
aI-258
aI-594
aI276
aI619
aI-2725
aI-689
aI-341
aI-60
aI-1339
aI907
aI797
aI-926
aI591
aI-229
aI184
aI-605
aI618
aI-90
aI-569
aI-687
aI566
aI110
aI-804
aI-65
aI-100
aI-214
aI-1048
aI-490
aI129
aI-350
aI26
aI293
aI-1313
aI349
aI-222
aI-296
aI-927
aI1255
aI-776
aI658
aI-111
aI-297
aI874
aI-567
aI83
aI196
aI1059
aI-184
aI18
aI1045
aI841
aI801
aI944
aI394
aI767
aI189
aI-241
aI-752
aI67
aI-741
aI1075
aI-407
aI-1776
aI-545
aI325
aI-180
aI669
aI-848
aI1130
aI-558
aI276
aI718
aI-1170
aI820
aI42
aI-1244
aI1425
aI394
aI-432
aI310
aI-554
aI1636
aI-199
aI-447
aI571
aI237
aI103
aI-848
aI62
aI1601
aI-795
aI-298
aI276
aI-21
aI849
aI899
aI-455
aI-669
aI670
aI1082
aI-683
aI-278
aI1419
aI-1003
aI-1144
aI123
aI-186
aI-633
aI-143
aI-900
aI-664
aI-293
aI-30
aI825
aI350
aI11
aI-73
aI-941
aI-143
aI399
aI-1828
aI-125
aI221
aI-243
aI-1176
aI308
aI474
aI1045
aI-1253
aI-744
aI-887
aI-438
aI1114
aI503
aI-534
aI-115
aI-375
aI1522
aI-452
aI-568
aI165
aI409
aI-677
aI-486
aI-397
aI246
aI645
aI-371
aI78
aI497
aI-392
aI-496
aI-180
aI-398
aI-596
aI-970
aI-647
aI-301
aI664
aI385
aI157
aI204
aI-722
aI412
aI152
aI-202
aI-1201
aI-1134
aI556
aI207
aI-556
aI1587
aI668
aI-762
aI-970
aI85
aI372
aI2016
aI-241
aI-1151
aI-915
aI-1619
aI-1246
aI-246
aI371
aI1131
aI-602
aI164
aI178
aI415
aI-938
aI-473
aI223
aI-409
aI642
aI-381
aI-606
aI-1329
aI1583
aI151
aI-306
aI342
aI127
aI492
aI265
aI617
aI-227
aI-607
aI331
aI-262
aI80
aI449
aI-26
aI4
aI1196
aI-1069
aI1226
aI-639
aI-1193
aI-768
aI380
aI320
aI496
aI-450
aI-160
aI-492
aI-32
aI-859
aI587
aI-699
aI774
aI101
aI-980
aI-718
aI380
aI867
aI655
aI1095
aI-247
aI-421
aI1586
aI-1165
aI-149
aI-185
aI-880
aI-982
aI42
aI-131
aI877
aI185
aI-256
aI1483
aI590
aI2585
aI1159
aI1091
aI732
aI-1062
aI-1587
aI-1266
aI121
aI-458
aI-220
aI884
aI374
aI-580
aI118
aI-84
aI135
aI-238
aI-149
aI-263
aI132
aI1445
aI-1583
aI-198
aI753
aI753
aI579
aI-163
aI380
aI-477
aI348
aI-284
aI729
aI-18
aI-847
aI-383
aI422
aI306
aI1124
aI-863
aI-856
aI-329
aI721
aI-198
aI-691
aI382
aI-433
aI436
aI1443
aI-1164
aI-982
aI1046
aI-122
aI609
aI1849
aI-1067
aI572
aI-415
aI-507
aI-146
aI430
aI741
aI-1044
aI544
aI1087
aI338
aI-698
aI921
aI356
aI-1010
aI-396
aI1043
aI604
aI456
aI-331
aI1025
aI-237
aI-718
aI-899
aI178
aI75
aI-9
aI-272
aI-430
aI-1092
aI-882
aI-1908
aI-449
aI361
aI353
aI799
aI161
aI1688
aI254
aI634
aI577
aI1225
aI-1072
aI200
aI-440
aI-273
aI-887
aI257
aI-1492
aI-174
aI1322
aI1258
aI335
aI1069
aI1128
aI-415
aI-771
aI569
aI-1041
aI-395
aI-673
aI-476
aI570
aI641
aI172
aI1593
aI570
aI250
aI575
aI-2053
aI-1508
aI-359
aI-1338
aI1022
aI1080
aI1370
aI-560
aI-586
aI-2146
aI-22
aI394
aI51
aI503
aI-851
aI-884
aI-234
aI-612
aI-1035
aI284
aI-497
aI-1501
aI496
aI-91
aI800
aI721
aI130
aI373
aI572
aI1449
aI-433
aI-916
aI50
aI111
aI-450
aI-381
aI-228
aI529
aI253
aI405
aI355
aI69
aI606
aI246
aI426
aI283
aI-1136
aI1110
aI-999
aI-504
aI1408
aI1086
aI645
aI46
aI-151
aI-824
aI640
aI-540
aI478
aI1159
aI-979
aI-59
aI-316
aI-487
aI985
aI-820
aI1417
aI905
aI-1394
aI-344
aI-216
aI581
aI-700
aI-344
aI-301
aI-67
aI0
aI7
aI-912
aI188
aI700
aI-379
aI-643
aI-15
aI152
aI-114
aI-648
aI-1470
aI-1029
aI-294
aI-1097
aI1064
aI82
aI219
aI-1042
aI863
aI670
aI357
aI54
aI-864
aI340
aI-840
aI630
aI-1684
aI-254
aI-63
aI628
aI1281
aI-1827
aI-859
aI-1133
aI1006
aI-1715
aI-1637
aI-464
aI-1109
aI635
aI635
aI-241
aI-253
aI-652
aI423
aI644
aI-265
aI980
aI-241
aI1491
aI155
aI904
aI-1544
aI-141
aI359
aI535
aI-50
aI-159
aI1573
aI-618
aI-336
aI448
aI-900
aI-1460
aI307
aI287
aI-202
aI510
aI946
aI276
aI313
aI-1557
aI-197
aI961
aI374
aI929
aI756
aI-821
aI341
aI463
aI-1190
aI335
aI-818
aI668
aI1003
aI289
aI-741
aI1022
aI1187
aI-1245
aI1154
aI-598
aI-552
aI45
aI542
aI1303
aI1229
aI641
aI-367
aI62
aI-1224
aI-116
aI-507
aI616
aI967
aI189
aI209
aI-214
aI197
aI1162
aI186
aI-237
aI418
aI470
aI-277
aI496
aI1224
aI-1078
aI-178
aI-70
aI2
aI-65
aI-166
aI-507
aI783
aI274
aI-178
aI48
aI-361
aI-1278
aI2163
aI693
aI-545
aI211
aI511
aI155
aI-125
aI-1200
aI119
aI-1119
aI-36
aI728
aI202
aI192
aI-309
aI-805
aI-417
aI-1681
aI1946
aI875
aI781
aI1357
aI665
aI364
aI417
aI79
aI687
aI-824
aI278
aI646
aI-852
aI1875
aI854
aI211
aI-2117
aI378
aI84
aI221
aI6
aI760
aI847
aI-1195
aI913
aI661
aI582
aI-816
aI-87
aI661
aI73
aI614
aI716
aI1214
aI-101
aI753
aI-1203
aI-712
aI169
aI-477
aI-1067
aI1003
aI566
aI351
aI1709
aI608
aI869
aI368
aI-821
aI-347
aI-798
aI284
aI-57
aI-1272
aI284
aI-906
aI464
aI795
aI-398
aI-668
aI1732
aI115
aI216
aI-1023
aI225
aI63
aI619
aI843
aI713
aI1286
aI578
aI-75
aI905
aI-415
aI-1694
aI-466
aI281
aI-1075
aI-805
aI-115
aI-40
aI-501
aI-365
aI-818
aI-947
aI-76
aI-561
aI250
aI-143
aI616
aI-137
aI53
aI-1
aI-261
aI-710
aI-1035
aI751
aI514
aI-970
aI-408
aI412
aI-349
aI830
aI916
aI-408
aI-109
aI-36
aI1076
aI-1212
aI607
aI976
aI-194
aI-1930
aI-630
aI-253
aI879
aI1831
aI-1026
aI-896
aI-775
aI-533
aI349
aI-454
aI-440
aI432
aI812
aI-143
aI226
aI1611
aI196
aI-855
aI517
aI-383
aI-17
aI743
aI-299
aI728
aI-397
aI741
aI-196
aI396
aI403
aI-115
aI83
aI-493
aI530
aI-1200
aI-1349
aI-299
aI459
aI-358
aI405
aI260
aI-363
aI-81
aI1277
aI-273
aI-1285
aI279
aI-207
aI645
aI-443
aI-259
aI-884
aI-480
aI-1829
aI-321
aI-758
aI-186
aI-949
aI-1030
aI961
aI-876
aI-471
aI626
aI-922
aI-262
aI688
aI-1151
aI-2169
aI-1534
aI-54
aI432
aI-1301
aI554
aI-1223
aI898
aI-404
aI281
aI497
aI438
aI-859
aI-594
aI1188
aI-412
aI-121
aI-363
aI-78
aI-39
aI-358
aI912
aI-988
aI-90
aI101
aI-326
aI-553
aI-217
aI-797
aI-767
aI358
aI-111
aI243
aI-17
aI1354
aI739
aI1730
aI-1697
aI319
aI-431
aI-61
aI512
aI-634
aI-1117
aI809
aI-1102
aI1080
aI-397
aI197
aI-68
aI-373
aI-129
aI-138
aI1620
aI-303
aI-158
aI-813
aI-1287
aI1266
aI-45
aI517
aI-673
aI-390
aI436
aI-1687
aI613
aI-96
aI41
aI-43
aI-1103
aI-761
aI-75
aI160
aI162
aI-709
aI-422
aI849
aI-413
aI-798
aI-1547
aI787
aI1071
aI61
aI181
aI34
aI-613
aI-683
aI607
aI-217
aI-1067
aI-256
aI67
aI769
aI719
aI934
aI-933
aI897
aI-638
aI-777
aI-271
aI935
aI318
aI337
aI-1281
aI550
aI391
aI1462
aI-574
aI-1049
aI489
aI348
aI1005
aI311
aI-629
aI-233
aI-902
aI132
aI-45
aI-355
aI-537
aI1581
aI481
aI-495
aI-414
aI210
aI533
aI642
aI-1793
aI1154
aI-365
aI-770
aI1394
aI-329
aI-330
aI-886
aI225
aI-149
aI159
aI-1104
aI-982
aI325
aI-30
aI-743
aI-234
aI317
aI104
aI1481
aI-112
aI867
aI-182
aI-200
aI337
aI-93
aI3
aI-201
aI-307
aI221
aI-709
aI-290
aI-193
aI89
aI-702
aI709
aI662
aI-591
aI126
aI651
aI49
aI1649
aI-371
aI-271
aI-1198
aI816
aI-401
aI256
aI-1461
aI820
aI-283
aI513
aI-382
aI1135
aI140
aI897
aI-856
aI-1118
aI-74
aI488
aI-386
aI-819
aI121
aI-46
aI-2067
aI340
aI-529
aI-338
aI-306
aI-587
aI-864
aI74
aI-238
aI1923
aI867
aI-641
aI837
aI1595
aI-464
aI-950
aI686
aI88
aI-144
aI-51
aI-262
aI671
aI-765
aI472
aI-671
aI782
aI1250
aI378
aI-566
aI166
aI489
aI-466
aI1753
aI-186
aI-229
aI-800
aI-943
aI113
aI-540
aI-179
aI1069
aI1440
aI-801
aI-260
aI-668
aI1039
aI959
aI-921
aI-990
aI772
aI1613
aI-653
aI83
aI535
aI633
aI852
aI-386
aI-63
aI204
aI-1000
aI1442
aI301
aI-472
aI143
aI-157
aI1128
aI801
aI-737
aI-482
aI-2119
aI658
aI388
aI730
aI-38
aI-335
aI119
aI114
aI393
aI430
aI-37
aI-134
aI-30
aI7
aI-495
aI1526
aI1804
aI-174
aI68
aI1479
aI-233
aI825
aI-246
aI561
aI-726
aI-368
aI371
aI224
aI636
aI810
aI153
aI458
aI854
aI-1961
aI1190
aI-391
aI-796
aI-1568
aI5
aI-785
aI1141
aI935
aI1009
aI532
aI-121
aI670
aI-404
aI-335
aI448
aI-1624
aI1139
aI-201
aI-957
aI-1466
aI-84
aI425
aI-337
aI-1423
aI-451
aI80
aI598
aI1297
aI-385
aI146
aI1403
aI266
aI828
aI-1932
aI1588
aI-724
aI-140
aI1073
aI1926
aI973
aI700
aI774
aI1992
aI-350
aI-251
aI88
aI-856
aI212
aI518
aI261
aI692
aI1180
aI1132
aI225
aI-1112
aI415
aI106
aI-946
aI375
aI-360
aI-357
aI-891
aI221
aI666
aI101
aI-407
aI1102
aI-287
aI214
aI203
aI-285
aI-961
aI592
aI-688
aI501
aI-522
aI2454
aI1340
aI-872
aI-1206
aI-864
aI393
aI-392
aI10
aI179
aI-232
aI-1441
aI-717
aI68
aI-433
aI-1762
aI-366
aI193
aI569
aI255
aI-897
aI66
aI39
aI-122
aI9
aI958
aI648
aI540
aI-1709
aI1703
aI-1563
aI-665
aI-284
aI-811
aI-629
aI411
aI249
aI1162
aI-2
aI101
aI396
aI-718
aI1622
aI-1216
aI-398
aI-145
aI368
aI1243
aI298
aI-492
aI-427
aI-1330
aI700
aI-723
aI674
aI252
aI877
aI1657
aI-826
aI470
aI1225
aI696
aI1436
aI-1123
aI-456
aI763
aI-796
aI-597
aI-764
aI865
aI757
aI577
aI-1078
aI564
aI1148
aI73
aI-98
aI-1239
aI-557
aI135
aI220
aI248
aI33
aI856
aI-316
aI-418
aI-209
aI956
aI-1673
aI-687
aI-563
aI619
aI665
aI1105
aI1132
aI541
aI-315
aI257
aI-860
aI902
aI-2394
aI-389
aI-1921
aI744
aI-1488
aI-755
aI-815
aI913
aI-354
aI-341
aI-1873
aI-32
aI-4
aI245
aI-580
aI239
aI-227
aI-1709
aI382
aI-336
aI715
aI15
aI603
aI-819
aI198
aI234
aI801
aI75
aI765
aI-335
aI-1062
aI-1338
aI-1083
aI-894
aI213
aI-218
aI-330
aI-807
aI141
aI513
aI-422
aI-299
aI850
aI-163
aI3
aI-253
aI176
aI-205
aI300
aI-591
aI-314
aI331
aI-625
aI-858
aI-606
aI671
aI480
aI95
aI1589
aI-413
aI1683
aI119
aI127
aI-281
aI1008
aI846
aI488
aI-2231
aI2350
aI-1083
aI979
aI-171
aI97
aI101
aI-461
aI-59
aI-575
aI-855
aI60
aI330
aI246
aI542
aI658
aI-538
aI1650
aI-149
aI77
aI299
aI-1380
aI1070
aI109
aI-98
aI321
aI-2274
aI135
aI594
aI-554
aI-901
aI-835
aI384
aI-1515
aI508
aI-703
aI-876
aI-600
aI-1459
aI591
aI-1396
aI-674
aI364
aI-194
aI1117
aI-666
aI139
aI-253
aI194
aI676
aI731
aI480
aI1251
aI156
aI-904
aI-1832
aI-331
aI44
aI14
aI1367
aI485
aI180
aI528
aI160
aI-175
aI-877
aI165
aI-1022
aI620
aI-258
aI-1498
aI632
aI-301
aI1028
aI708
aI-889
aI405
aI-180
aI10
aI1306
aI-1850
aI-211
aI-638
aI-299
aI-992
aI-2589
aI-323
aI379
aI527
aI237
aI-277
aI134
aI307
aI-120
aI-202
aI452
aI-204
aI6
aI-224
aI-789
aI-163
aI18
aI-1129
aI-672
aI774
aI-166
aI-527
aI159
aI-810
aI202
aI1609
aI149
aI-82
aI-1292
aI1612
aI-61
aI1214
aI-74
aI2257
aI-941
aI1501
aI939
aI71
aI-160
aI-691
aI557
aI289
aI-224
aI442
aI-665
aI-544
aI-1461
aI391
aI555
aI513
aI-17
aI796
aI584
aI445
aI-515
aI-403
aI-861
aI457
aI-1082
aI91
aI-794
aI-687
aI179
aI611
aI-1023
aI-561
aI-23
aI388
aI709
aI-417
aI-785
aI1156
aI395
aI-440
aI923
aI284
aI-409
aI179
aI-176
aI-38
aI393
aI440
aI-1218
aI694
aI643
aI528
aI-848
aI-782
aI-2400
aI959
aI-1130
aI-201
aI-561
aI1063
aI514
aI208
aI187
aI-412
aI-151
aI-290
aI1044
aI425
aI9
aI899
aI-716
aI-1266
aI-1782
aI1228
aI262
aI-804
aI1231
aI1254
aI-406
aI-764
aI656
aI144
aI348
aI-85
aI24
aI-1658
aI-1072
aI-66
aI409
aI167
aI-1289
aI-98
aI211
aI344
aI-1682
aI255
aI261
aI-147
aI11
aI-1130
aI1402
aI-582
aI248
aI320
aI-323
aI-578
aI670
aI-197
aI730
aI491
aI-2012
aI-330
aI644
aI-1438
aI328
aI821
aI-607
aI-217
aI369
aI387
aI-55
aI-628
aI474
aI368
aI-70
aI-650
aI802
aI953
aI-1717
aI55
aI1992
aI-766
aI41
aI-33
aI-272
aI-437
aI41
aI271
aI-725
aI-296
aI162
aI-59
aI767
aI386
aI-856
aI-1185
aI-50
aI-87
aI-224
aI185
aI1726
aI496
aI1720
aI-619
aI651
aI164
aI1426
aI152
aI492
aI1931
aI-977
aI-1791
aI-138
aI-542
aI117
aI8
aI1275
aI-221
aI-1846
aI539
aI101
aI-190
aI366
aI-889
aI-575
aI-1188
aI-2495
aI-1036
aI679
aI-912
aI-626
aI683
aI938
aI319
aI-502
aI-651
aI-1255
aI169
aI-744
aI-947
aI1445
aI-353
aI-782
aI-510
aI-1198
aI1153
aI-139
aI-1801
aI1026
aI-939
aI732
aI-662
aI541
aI-435
aI-839
aI361
aI-271
aI-1827
aI751
aI-204
aI-674
aI88
aI-905
aI-575
aI-208
aI1198
aI523
aI-66
aI10
aI-699
aI791
aI-1418
aI-208
aI1850
aI465
aI-541
aI-648
aI810
aI1086
aI-645
aI520
aI-290
aI-363
aI-451
aI-796
aI512
aI-304
aI1234
aI-1146
aI34
aI-1044
aI1822
aI1264
aI-1196
aI1273
aI-1609
aI589
aI-231
aI-42
aI282
aI1782
aI726
aI234
aI-407
aI107
aI253
aI1210
aI-112
aI-129
aI-455
aI-471
aI753
aI-312
aI-742
aI1498
aI39
aI-672
aI-1127
aI-468
aI-1108
aI-138
aI326
aI384
aI-724
aI1523
aI1075
aI-1223
aI-657
aI-958
aI773
aI-1079
aI-808
aI263
aI10
aI962
aI-1419
aI-908
aI-490
aI43
aI-305
aI559
aI230
aI-353
aI289
aI-1119
aI63
aI950
aI641
aI222
aI-314
aI1184
aI-1163
aI91
aI306
aI-803
aI-164
aI-460
aI468
aI-1059
aI243
aI1835
aI-486
aI1653
aI647
aI-205
aI-888
aI-1125
aI-796
aI-109
aI1099
aI-1230
aI701
aI215
aI1409
aI-926
aI893
aI1111
aI-559
aI-548
aI-377
aI-49
aI-636
aI66
aI-203
aI616
aI563
aI304
aI272
aI-8
aI211
aI-187
aI-1521
aI172
aI-236
aI512
aI-335
aI245
aI-241
aI347
aI1594
aI680
aI154
aI861
aI-1121
aI65
aI1962
aI-36
aI-1618
aI-57
aI467
aI-1302
aI-678
aI729
aI266
aI939
aI-1855
aI1931
aI1434
aI-1463
aI446
aI539
aI-267
aI-759
aI133
aI790
aI248
aI-128
aI696
aI-616
aI-1653
aI-1011
aI442
aI575
aI-227
aI671
aI1209
aI1665
aI-277
aI-560
aI-275
aI-1903
aI-786
aI-1184
aI43
aI-1007
aI-466
aI-425
aI-494
aI-347
aI-909
aI1113
aI-1087
aI-1374
aI641
aI233
aI263
aI-1164
aI530
aI-161
aI235
aI2116
aI614
aI-742
aI116
aI505
aI-1045
aI-574
aI-919
aI305
aI119
aI21
aI-523
aI-977
aI-184
aI763
aI-356
aI1947
aI-524
aI-589
aI295
aI-928
aI1227
aI-1244
aI688
aI786
aI-572
aI-751
aI697
aI-32
aI97
aI906
aI-1226
aI504
aI-785
aI-551
aI39
aI-629
aI1319
aI-536
aI225
aI-147
aI72
aI1621
aI-314
aI-471
aI1022
aI-213
aI58
aI7
aI269
aI-1333
aI769
aI886
aI411
aI202
aI1149
aI-90
aI-716
aI933
aI1323
aI195
aI287
aI-1739
aI92
aI-436
aI1303
aI1863
aI-793
aI-2822
aI-258
aI679
aI1249
aI407
aI-364
aI-279
aI190
aI-1959
aI799
aI1420
aI357
aI-970
aI261
aI-565
aI1075
aI826
aI501
aI-244
aI2434
aI366
aI-745
aI1581
aI-432
aI325
aI-1468
aI-479
aI429
aI132
aI1297
aI-803
aI459
aI-1301
aI-631
aI-1026
aI-1257
aI-922
aI-281
aI-736
aI-943
aI1429
aI-1065
aI1938
aI1606
aI-481
aI-542
aI486
aI-1128
aI-1534
aI1237
aI28
aI2093
aI72
aI97
aI-634
aI-348
aI1209
aI-93
aI-659
aI-26
aI957
aI1616
aI1487
aI-144
aI148
aI1007
aI251
aI159
aI818
aI95
aI737
aI-123
aI919
aI1108
aI718
aI-26
aI17
aI-675
aI35
aI1088
aI-5
aI-301
aI855
aI1294
aI-98
aI-236
aI1111
aI-729
aI-1126
aI571
aI-369
aI-358
aI805
aI202
aI990
aI-573
aI-781
aI159
aI-892
aI188
aI-3
aI803
aI-1438
aI-143
aI84
aI-1517
aI-3
aI306
aI426
aI-694
aI393
aI-122
aI136
aI1449
aI-494
aI1439
aI-709
aI351
aI368
aI468
aI-1369
aI1916
aI-885
aI2154
aI209
aI-54
aI555
aI587
aI67
aI359
aI-1482
aI1668
aI-1446
aI1271
aI-2002
aI1953
aI292
aI-97
aI-779
aI1057
aI-41
aI467
aI537
aI146
aI-742
aI-347
aI-296
aI109
aI-446
aI1081
aI132
aI269
aI676
aI-1449
aI-215
aI-274
aI213
aI252
aI-1612
aI658
aI755
aI-110
aI1222
aI1303
aI182
aI-1267
aI-799
aI-464
aI26
aI2193
aI488
aI1749
aI1118
aI345
aI-1751
aI-338
aI-601
aI427
aI-552
aI-637
aI613
aI293
aI-485
aI-1449
aI-506
aI-1570
aI199
aI66
aI2029
aI511
aI-2118
aI-254
aI-458
aI217
aI-1174
aI-27
aI258
aI-74
aI577
aI479
aI-319
aI-767
aI310
aI-165
aI-817
aI172
aI-108
aI-632
aI-1491
aI-725
aI367
aI113
aI-845
aI203
aI234
aI267
aI-1694
aI750
aI-458
aI-242
aI12
aI-770
aI-429
aI1064
aI-2577
aI-473
aI-527
aI1258
aI-1236
aI595
aI837
aI2652
aI224
aI-1142
aI1357
aI-365
aI614
aI683
aI-1581
aI158
aI441
aI-20
aI2481
aI-129
aI-477
aI-18
aI731
aI539
aI861
aI1709
aI-360
aI-443
aI-843
aI-87
aI-1527
aI-1210
aI-556
aI-950
aI-360
aI735
aI69
aI709
aI-325
aI-2037
aI394
aI492
aI-338
aI768
aI-886
aI1199
aI119
aI-1228
aI-845
aI-261
aI-1402
aI16
aI-1109
aI-274
aI-825
aI-773
aI405
aI267
aI-1298
aI157
aI-722
aI-1061
aI1492
aI-1256
aI1246
aI-790
aI909
aI-536
aI-576
aI-469
aI-375
aI381
aI-449
aI1332
aI1352
aI2977
aI-1324
aI-617
aI-235
aI-273
aI1508
aI-974
aI52
aI-403
aI-1973
aI-2174
aI88
aI-702
aI893
aI-899
aI-619
aI-245
aI1016
aI1266
aI-142
aI1279
aI756
aI622
aI1307
aI-356
aI956
aI-1155
aI-1830
aI456
aI-88
aI395
aI245
aI571
aI517
aI549
aI50
aI247
aI-130
aI-5
aI119
aI-22
aI5
aI-57
aI1015
aI518
aI2057
aI711
aI484
aI166
aI1515
aI48
aI897
aI363
aI-421
aI1805
aI2201
aI-1647
aI-866
aI2864
aI1361
aI83
aI-1327
aI1066
aI210
aI1708
aI-715
aI938
aI-1117
aI-1327
aI2007
aI182
aI776
aI2066
aI1166
aI-319
aI-129
aI1460
aI276
aI798
aI-263
aI3274
aI-360
aI313
aI1629
aI-1597
aI-490
aI-2056
aI1388
aI-1166
aI-3090
aI-487
aI-420
aI-3585
aI-1766
aI859
aI-34
aI-464
aI241
aI9
aI-2461
aI-2478
aI838
aI2369
aI936
aI356
aI116
aI-484
aI2300
aI2371
aI494
aI-1474
aI464
aI-546
aI-86
aI397
aI-1398
aI-2059
aI-562
aI-2057
aI-251
aI-765
aI2246
aI-1647
aI1201
aI-246
aI478
aI-587
aI869
aI136
aI888
aI324
aI72
aI-1881
aI41
aI149
aI-1820
aI-722
aI978
aI-1614
aI-2835
aI-1662
aI-388
aI2914
aI872
aI-1333
aI57
aI-178
aI-152
aI2132
aI645
aI932
aI361
aI-1006
aI-534
aI622
aI-107
aI164
aI-494
aI144
aI3
aI26
aI-25
aI-165
aI-465
aI-359
aI-797
aI211
aI1297
aI-318
aI-349
aI-1449
aI-2103
aI-933
aI-649
aI-1541
aI1652
aI-1526
aI71
aI949
aI-2201
aI1731
aI554
aI2036
aI-990
aI-346
aI692
aI810
aI7
aI965
aI-2170
aI839
aI-2362
aI-2571
aI1622
aI1028
aI-144
aI737
aI-248
aI-274
aI-1312
aI-776
aI305
aI-1871
aI-3547
aI-734
aI963
aI-616
aI-384
aI279
aI590
aI-512
aI-678
aI1353
aI1845
aI-270
aI-1514
aI386
aI1902
aI1209
aI97
aI2152
aI540
aI-2795
aI-1654
aI1015
aI376
aI476
aI-1575
aI-1015
aI1363
aI-1
aI719
aI-235
aI-379
aI-1052
aI2067
aI-1594
aI673
aI-532
aI759
aI259
aI-1604
aI-112
aI-2251
aI19
aI-780
aI-1304
aI-540
aI-123
aI867
aI-566
aI-236
aI-1244
aI-362
aI-1314
aI-1464
aI1474
aI-352
aI-151
aI906
aI-585
aI1107
aI-762
aI-122
aI1048
aI955
aI583
aI-604
aI-2020
aI388
aI-1804
aI-103
aI635
aI-83
aI-615
aI-784
aI236
aI307
aI-375
aI112
aI-37
aI7
aI1413
aI387
aI-1102
aI871
aI1192
aI993
aI1028
aI-185
aI1063
aI1051
aI1234
aI611
aI246
aI-1087
aI873
aI-1273
aI-1196
aI1471
aI-2074
aI-2046
aI1381
aI735
aI-877
aI-300
aI-1560
aI1151
aI-2184
aI549
aI1012
aI93
aI345
aI2431
aI613
aI911
aI-971
aI-85
aI288
aI-600
aI-1261
aI-484
aI-879
aI-8
aI-1246
aI1065
aI-75
aI1092
aI-1183
aI1425
aI-1372
aI-292
aI-329
aI1483
aI-262
aI1320
aI-1808
aI-632
aI588
aI-725
aI227
aI26
aI-518
aI-2179
aI915
aI-1037
aI407
aI220
aI711
aI-1355
aI476
aI1638
aI546
aI1467
aI-1726
aI-459
aI407
aI-470
aI-844
aI135
aI-1423
aI-978
aI929
aI2494
aI-183
aI1110
aI2013
aI941
aI-1183
aI-262
aI776
aI-673
aI-647
aI35
aI1507
aI-208
aI346
aI1211
aI-419
aI982
aI753
aI1290
aI1195
aI171
aI968
aI-1335
aI1043
aI-209
aI555
aI-542
aI-46
aI-314
aI-813
aI938
aI-274
aI-769
aI-135
aI123
aI-61
aI99
aI-34
aI-1
aI1121
aI652
aI508
aI1535
aI-135
aI-434
aI265
aI-254
aI-1394
aI-624
aI-1501
aI-1158
aI682
aI901
aI-1291
aI15
aI1800
aI802
aI-133
aI-1104
aI1283
aI-922
aI16
aI-3
aI-798
aI-1151
aI-40
aI-143
aI-605
aI699
aI-627
aI-652
aI-255
aI1869
aI-698
aI-974
aI-65
aI-438
aI1525
aI443
aI-368
aI950
aI-693
aI740
aI-264
aI31
aI561
aI-882
aI-1976
aI-514
aI-642
aI3284
aI54
aI-1116
aI75
aI-664
aI1366
aI-1629
aI1067
aI113
aI943
aI1366
aI-552
aI1090
aI588
aI-509
aI-23
aI-1392
aI204
aI-1708
aI-930
aI3
aI-2402
aI769
aI66
aI-367
aI274
aI-31
aI199
aI-522
aI1570
aI541
aI1020
aI2011
aI219
aI2188
aI1380
aI939
aI3019
aI173
aI-644
aI152
aI1253
aI-1902
aI-1066
aI530
aI-857
aI187
aI-222
aI634
aI950
aI-769
aI-898
aI-1135
aI208
aI2086
aI468
aI181
aI-189
aI-142
aI-137
aI518
aI1030
aI-42
aI64
aI-401
aI294
aI197
aI62
aI2
aI-58
aI-1475
aI-84
aI-1055
aI438
aI-380
aI140
aI1076
aI642
aI-1165
aI1440
aI385
aI90
aI1031
aI-1263
aI1893
aI1145
aI-1552
aI1165
aI1010
aI-1136
aI1569
aI-725
aI-904
aI207
aI740
aI14
aI-1088
aI-2051
aI1767
aI-1331
aI-707
aI560
aI-2167
aI60
aI864
aI261
aI139
aI-336
aI1
aI104
aI427
aI658
aI-16
aI1382
aI-226
aI-995
aI-1659
aI567
aI-2747
aI-683
aI-33
aI-854
aI-899
aI487
aI1256
aI1612
aI-2686
aI-717
aI230
aI-1164
aI461
aI-119
aI478
aI636
aI-1166
aI-605
aI1596
aI-519
aI-362
aI428
aI-1894
aI623
aI659
aI302
aI-353
aI1016
aI-1102
aI706
aI-633
aI2352
aI1036
aI819
aI1316
aI76
aI-124
aI-97
aI-1222
aI-2139
aI120
aI403
aI1475
aI-2073
aI1297
aI649
aI-220
aI-1169
aI-1068
aI-468
aI400
aI-34
aI193
aI462
aI-1141
aI-1076
aI-495
aI692
aI-569
aI-273
aI13
aI-625
aI1493
aI-179
aI241
aI128
aI37
aI157
aI186
aI-53
aI-21
aI-163
aI145
aI-860
aI-366
aI-212
aI-1884
aI781
aI-710
aI-1412
aI-844
aI-346
aI-1492
aI-432
aI1006
aI764
aI-944
aI227
aI997
aI1609
aI976
aI-462
aI-952
aI-551
aI1441
aI1412
aI1502
aI-467
aI-305
aI2
aI514
aI600
aI-1443
aI1203
aI113
aI968
aI585
aI-802
aI850
aI1498
aI945
aI1382
aI-1010
aI409
aI-102
aI1591
aI1029
aI379
aI-1772
aI1514
aI-1637
aI-390
aI-1638
aI912
aI496
aI2812
aI604
aI-475
aI-824
aI1418
aI-204
aI332
aI-996
aI35
aI-1250
aI-325
aI-1121
aI-1715
aI1207
aI176
aI-356
aI-2411
aI-1713
aI-259
aI2589
aI-2072
aI-1199
aI2444
aI-359
aI-130
aI1478
aI434
aI-1270
aI-2263
aI-23
aI901
aI392
aI258
aI-258
aI116
aI-323
aI445
aI-410
aI-1198
aI2644
aI914
aI509
aI1214
aI-370
aI856
aI971
aI-219
aI-1080
aI-681
aI352
aI865
aI-723
aI4370
aI454
aI-495
aI-395
aI135
aI1205
aI72
aI422
aI330
aI462
aI-234
aI117
aI34
aI-5
aI1660
aI200
aI-693
aI-581
aI145
aI-187
aI-63
aI-648
aI-397
aI799
aI-1068
aI-2323
aI-1497
aI286
aI1791
aI1016
aI1469
aI292
aI1653
aI720
aI-1679
aI-526
aI-183
aI-1082
aI868
aI1052
aI1346
aI-1648
aI931
aI443
aI976
aI-216
aI697
aI-1632
aI-636
aI-1662
aI125
aI28
aI-545
aI430
aI-1170
aI1262
aI-1276
aI203
aI753
aI78
aI947
aI-84
aI1217
aI1567
aI1722
aI519
aI624
aI-291
aI2549
aI1722
aI518
aI1083
aI560
aI992
aI-312
aI-228
aI102
aI-57
aI105
aI-548
aI-1257
aI796
aI606
aI1868
aI86
aI1148
aI-542
aI-296
aI1319
aI-2368
aI8
aI1625
aI-498
aI6
aI-464
aI-2757
aI176
aI2587
aI-352
aI-692
aI-767
aI466
aI616
aI150
aI3328
aI-22
aI-1313
aI240
aI-314
aI-788
aI418
aI224
aI689
aI1332
aI681
aI-287
aI766
aI728
aI-444
aI-943
aI-471
aI374
aI126
aI105
aI419
aI-651
aI-3
aI766
aI762
aI-175
aI-125
aI-99
aI0
aI44
aI1035
aI-834
aI-95
aI772
aI-1472
aI-408
aI712
aI-595
aI-532
aI509
aI1887
aI-1420
aI-430
aI2392
aI-2232
aI-891
aI1412
aI-1422
aI1103
aI2290
aI789
aI161
aI647
aI196
aI467
aI514
aI404
aI-632
aI707
aI-1932
aI-482
aI-1553
aI1376
aI-828
aI1083
aI-690
aI-1190
aI687
aI2266
aI740
aI-1704
aI-639
aI160
aI1516
aI398
aI-1353
aI298
aI-58
aI1630
aI1014
aI-1167
aI-213
aI334
aI-457
aI113
aI-68
aI195
aI-1467
aI792
aI2150
aI-1781
aI-759
aI-944
aI457
aI-187
aI199
aI-1062
aI1164
aI-317
aI-304
aI-807
aI-1973
aI-484
aI-985
aI179
aI-384
aI-196
aI1180
aI388
aI305
aI-161
aI-3643
aI-1484
aI-96
aI-1314
aI628
aI601
aI287
aI1013
aI-1007
aI-219
aI-544
aI-1331
aI-2354
aI-764
aI-402
aI-661
aI-530
aI1082
aI328
aI-310
aI-1597
aI-1331
aI467
aI-15
aI449
aI-632
aI3
aI-1052
aI-369
aI2158
aI-524
aI527
aI-134
aI236
aI-467
aI-180
aI-11
aI-49
aI-24
aI-218
aI-179
aI1223
aI-527
aI-191
aI2795
aI-2151
aI871
aI1110
aI97
aI288
aI-259
aI1272
aI102
aI318
aI795
aI947
aI-722
aI603
aI-1052
aI2305
aI-941
aI2117
aI1092
aI8
aI-2038
aI-242
aI-497
aI66
aI1817
aI-1328
aI500
aI2946
aI-1013
aI1330
aI-141
aI139
aI-2426
aI2273
aI-1461
aI194
aI-833
aI-663
aI-813
aI-2045
aI1459
aI2904
aI1780
aI-97
aI-1273
aI-771
aI15
aI2577
aI-380
aI398
aI1191
aI157
aI-3602
aI702
aI-207
aI-2027
aI-2197
aI-815
aI-1128
aI-1274
aI-434
aI79
aI-252
aI-1679
aI1026
aI279
aI-1057
aI16
aI-341
aI-934
aI2730
aI-758
aI437
aI830
aI-252
aI632
aI-2354
aI-1261
aI1349
aI1245
aI-1834
aI547
aI1134
aI261
aI-264
aI-588
aI1163
aI-141
aI561
aI642
aI-1574
aI604
aI690
aI158
aI-619
aI204
aI-1277
aI-956
aI-491
aI-405
aI-531
aI-810
aI1354
aI-637
aI277
aI-486
aI-887
aI-341
aI-239
aI50
aI47
aI-100
aI-119
aI0
aI-23
aI-3545
aI-781
aI-6
aI-217
aI-1928
aI1975
aI-75
aI-612
aI-854
aI2014
aI-444
aI252
aI-761
aI-608
aI1706
aI1842
aI1954
aI-535
aI-524
aI-2134
aI615
aI445
aI-835
aI-521
aI330
aI-314
aI1805
aI-958
aI1691
aI-1607
aI667
aI-300
aI-185
aI316
aI-331
aI608
aI1151
aI1431
aI-1914
aI1378
aI-1699
aI4026
aI-2034
aI866
aI-1962
aI445
aI557
aI-524
aI-3357
aI2926
aI829
aI-1679
aI279
aI-1554
aI2165
aI-127
aI130
aI1592
aI286
aI-734
aI-1067
aI-2455
aI1656
aI-282
aI-2547
aI-160
aI1126
aI896
aI-1017
aI1291
aI-489
aI-465
aI876
aI-161
aI933
aI1881
aI614
aI-700
aI1630
aI110
aI110
aI1531
aI210
aI1202
aI-882
aI-1626
aI-1326
aI-1502
aI724
aI-309
aI581
aI795
aI-1335
aI1120
aI6
aI464
aI113
aI1457
aI135
aI378
aI-1395
aI-406
aI814
aI324
aI-1379
aI-607
aI-1212
aI-290
aI-47
aI191
aI-215
aI36
aI-15
aI298
aI-162
aI234
aI-178
aI-286
aI79
aI11
aI-443
aI-721
aI-130
aI-466
aI98
aI-747
aI-968
aI-67
aI-2145
aI-509
aI-1300
aI544
aI-1770
aI-121
aI2200
aI-250
aI1069
aI410
aI2356
aI-552
aI-190
aI-1302
aI-507
aI-1114
aI-744
aI2078
aI991
aI-1892
aI785
aI140
aI168
aI-135
aI780
aI-811
aI-824
aI1292
aI-617
aI1293
aI-4073
aI97
aI-1676
aI1069
aI555
aI330
aI-397
aI-1533
aI-311
aI-163
aI131
aI1000
aI1373
aI370
aI-804
aI-112
aI1761
aI-805
aI1070
aI1076
aI986
aI-2378
aI-1723
aI379
aI1683
aI867
aI-1379
aI-1020
aI-109
aI1309
aI-11
aI1226
aI-39
aI802
aI-610
aI53
aI-37
aI-969
aI1834
aI-1020
aI-85
aI-2490
aI3260
aI1187
aI-280
aI-1805
aI-416
aI-1102
aI-991
aI571
aI748
aI-1878
aI1274
aI56
aI-662
aI2298
aI558
aI1246
aI-1818
aI2316
aI-463
aI1363
aI-1199
aI788
aI1637
aI46
aI-150
aI-319
aI-915
aI-910
aI-438
aI-67
aI249
aI68
aI-194
aI-279
aI-160
aI384
aI14
aI13
aI7
aI4
aI2728
aI266
aI26
aI-1245
aI-330
aI-665
aI260
aI-778
aI3198
aI-553
aI-2118
aI-850
aI1071
aI-1811
aI88
aI-49
aI-716
aI-880
aI-369
aI671
aI2090
aI777
aI-519
aI442
aI475
aI103
aI333
aI1103
aI244
aI2305
aI-921
aI-1112
aI-915
aI-163
aI-416
aI-2063
aI-120
aI-3313
aI1583
aI-370
aI467
aI-365
aI-1354
aI-293
aI1206
aI1106
aI1776
aI-600
aI-682
aI-72
aI337
aI2382
aI151
aI-16
aI-411
aI-603
aI689
aI-580
aI-992
aI-116
aI1202
aI1182
aI-1
aI-648
aI736
aI896
aI391
aI-502
aI249
aI844
aI-1267
aI-1922
aI-72
aI-1511
aI-121
aI-1986
aI-826
aI1697
aI1304
aI-1272
aI588
aI-340
aI1552
aI2032
aI-751
aI189
aI452
aI43
aI-1164
aI1133
aI2180
aI234
aI-170
aI-1819
aI-1638
aI136
aI-67
aI-1203
aI258
aI-262
aI1373
aI522
aI1027
aI509
aI1388
aI1084
aI-903
aI-16
aI-201
aI-344
aI-126
aI-206
aI132
aI-217
aI189
aI226
aI44
aI-166
aI-76
aI27
aI-1726
aI1342
aI-115
aI270
aI-430
aI938
aI-528
aI583
aI-361
aI1460
aI387
aI997
aI-403
aI358
aI3373
aI-585
aI294
aI2420
aI699
aI-208
aI-1144
aI-1223
aI1231
aI-2148
aI371
aI1667
aI-1262
aI1683
aI1067
aI181
aI2343
aI884
aI1748
aI-1175
aI-400
aI2201
aI282
aI1584
aI-233
aI-2473
aI115
aI2356
aI504
aI-360
aI-1486
aI-822
aI265
aI-1076
aI1123
aI664
aI-1616
aI-3587
aI2051
aI2152
aI22
aI-568
aI-19
aI-747
aI-644
aI-1705
aI44
aI486
aI1659
aI116
aI-740
aI1830
aI1239
aI490
aI-1416
aI2462
aI-198
aI1366
aI492
aI-3088
aI631
aI769
aI-224
aI-49
aI-2439
aI835
aI-264
aI-409
aI-1961
aI785
aI1986
aI383
aI-1265
aI-291
aI838
aI-1919
aI2714
aI-948
aI-94
aI1743
aI-827
aI-802
aI-1229
aI995
aI-453
aI-179
aI-551
aI18
aI-316
aI1557
aI-680
aI-972
aI3063
aI374
aI975
aI2477
aI-445
aI-36
aI-202
aI1487
aI-103
aI229
aI-34
aI47
aI15
aI-2
aI109
aI-1150
aI-490
aI-1395
aI1847
aI-488
aI238
aI14
aI-1141
aI-322
aI-496
aI1002
aI-1032
aI-101
aI176
aI-385
aI-581
aI933
aI-1838
aI220
aI-648
aI668
aI1182
aI-632
aI1008
aI-426
aI-1255
aI648
aI-287
aI-617
aI-942
aI581
aI-1305
aI438
aI-703
aI2077
aI-1074
aI-1165
aI-741
aI-159
aI590
aI-1586
aI1165
aI-1706
aI-538
aI499
aI951
aI-1317
aI96
aI-793
aI-218
aI-1550
aI577
aI-644
aI60
aI121
aI-1315
aI2772
aI-368
aI-696
aI62
aI836
aI51
aI1738
aI2344
aI-214
aI800
aI-439
aI1639
aI-1359
aI-1127
aI751
aI218
aI1976
aI-2489
aI306
aI446
aI1179
aI1291
aI624
aI-2071
aI1770
aI224
aI-2608
aI432
aI-1004
aI-1404
aI2100
aI-1616
aI-412
aI150
aI42
aI1186
aI-1028
aI2526
aI1137
aI1662
aI-692
aI470
aI-583
aI-224
aI771
aI-491
aI1085
aI-457
aI-95
aI-1630
aI1146
aI1665
aI30
aI369
aI-544
aI136
aI303
aI397
aI49
aI65
aI163
aI-50
aI15
aI-1314
aI-811
aI-1258
aI-1127
aI-725
aI-336
aI-694
aI-1714
aI-586
aI536
aI-1637
aI506
aI1425
aI1001
aI-1375
aI1792
aI732
aI-3393
aI1469
aI-1972
aI1176
aI108
aI-368
aI280
aI-226
aI-1439
aI1038
aI1755
aI-1581
aI153
aI-565
aI167
aI1787
aI604
aI617
aI-921
aI991
aI444
aI-804
aI-113
aI1212
aI1972
aI338
aI-328
aI-336
aI573
aI1966
aI-504
aI-1496
aI1129
aI-19
aI1748
aI-361
aI-3320
aI2322
aI1630
aI1165
aI150
aI1380
aI335
aI-334
aI603
aI-98
aI1197
aI-1464
aI-282
aI1033
aI317
aI-1210
aI1319
aI96
aI-2138
aI2374
aI2065
aI1054
aI1106
aI661
aI-323
aI3002
aI-417
aI-1057
aI200
aI-823
aI1385
aI-390
aI-2149
aI87
aI646
aI638
aI1767
aI651
aI-570
aI-1201
aI722
aI613
aI1134
aI685
aI403
aI-1347
aI-1070
aI-336
aI-1158
aI-428
aI29
aI-22
aI1373
aI-1814
aI-329
aI-855
aI-645
aI503
aI-973
aI74
aI123
aI219
aI-358
aI108
aI236
aI60
aI12
aI59
aI-1916
aI-645
aI-168
aI1067
aI906
aI-1171
aI-280
aI983
aI-1316
aI-1910
aI651
aI-1586
aI-1559
aI-507
aI-513
aI278
aI-155
aI1334
aI-1279
aI-155
aI424
aI-186
aI-1474
aI-2051
aI-634
aI-1046
aI-1044
aI-379
aI2155
aI-1537
aI1439
aI-165
aI-7
aI-705
aI-1866
aI-1083
aI-3434
aI269
aI185
aI-233
aI-1302
aI-1077
aI-789
aI-588
aI888
aI953
aI260
aI15
aI160
aI2371
aI614
aI-372
aI-532
aI236
aI736
aI270
aI771
aI224
aI55
aI-1759
aI883
aI911
aI473
aI570
aI-8
aI-885
aI1451
aI332
aI1288
aI-493
aI-594
aI-454
aI1427
aI-470
aI-837
aI-1
aI-1314
aI2867
aI-1550
aI-1505
aI2005
aI-38
aI528
aI-1184
aI-1913
aI-727
aI327
aI-2963
aI-139
aI669
aI-170
aI-1119
aI-1062
aI1960
aI408
aI-232
aI376
aI-1075
aI878
aI425
aI1135
aI2266
aI-381
aI1981
aI-599
aI-3194
aI-265
aI-652
aI-800
aI-110
aI-1257
aI-521
aI-1354
aI61
aI41
aI-85
aI-146
aI124
aI-18
aI-2249
aI2229
aI-423
aI481
aI-95
aI-127
aI-26
aI2052
aI-437
aI1662
aI-394
aI214
aI-166
aI170
aI741
aI1752
aI1164
aI-22
aI33
aI-1054
aI1631
aI-2015
aI-1181
aI-770
aI673
aI-340
aI972
aI-260
aI244
aI-1482
aI-578
aI893
aI-2263
aI304
aI1219
aI1780
aI-1180
aI-61
aI-1087
aI1657
aI-2628
aI2091
aI-1444
aI-1117
aI1600
aI-262
aI-2591
aI-434
aI-2272
aI-114
aI1241
aI-123
aI873
aI199
aI613
aI-2251
aI332
aI1095
aI-909
aI-2153
aI1957
aI679
aI35
aI174
aI-89
aI-500
aI2018
aI1252
aI-117
aI-1744
aI-893
aI-771
aI93
aI-207
aI-1432
aI-734
aI-924
aI-1588
aI-1539
aI-623
aI150
aI241
aI971
aI-1248
aI-1114
aI-128
aI-756
aI930
aI-1165
aI-256
aI2128
aI21
aI94
aI553
aI165
aI-625
aI1321
aI-9
aI-60
aI904
aI-410
aI2039
aI1483
aI127
aI-936
aI-1357
aI-114
aI477
aI723
aI725
aI-815
aI605
aI285
aI194
aI-24
aI201
aI4
aI42
aI-120
aI27
aI454
aI730
aI-234
aI1195
aI-1369
aI-2251
aI-298
aI-122
aI-204
aI-124
aI-108
aI-1740
aI-1218
aI94
aI-968
aI-2126
aI531
aI545
aI1980
aI1943
aI-1204
aI-111
aI260
aI-935
aI-238
aI2636
aI266
aI-449
aI1708
aI2755
aI1118
aI-539
aI28
aI510
aI-353
aI-3064
aI-990
aI924
aI363
aI542
aI198
aI218
aI-81
aI-443
aI-266
aI-1643
aI-842
aI-625
aI2038
aI1572
aI345
aI-67
aI-405
aI1142
aI-811
aI-132
aI387
aI1209
aI-1842
aI1680
aI1500
aI2440
aI-487
aI-840
aI146
aI1777
aI-692
aI1426
aI-206
aI436
aI539
aI-1254
aI-356
aI-906
aI1186
aI-1399
aI908
aI1964
aI-1363
aI931
aI-1544
aI-113
aI659
aI-222
aI-1194
aI-232
aI644
aI-1126
aI-75
aI407
aI234
aI9
aI-872
aI1070
aI-1703
aI-467
aI-1968
aI-1827
aI-1723
aI427
aI-428
aI185
aI768
aI181
aI694
aI184
aI1249
aI-970
aI-464
aI1057
aI678
aI-1061
aI-247
aI148
aI98
aI-382
aI84
aI184
aI29
aI3
aI-406
aI-404
aI160
aI1751
aI-900
aI-1076
aI1475
aI498
aI921
aI-436
aI-341
aI-190
aI426
aI-466
aI-563
aI-189
aI-1242
aI-818
aI-343
aI85
aI-890
aI-474
aI-1635
aI475
aI1221
aI-1749
aI-624
aI230
aI-1319
aI-269
aI530
aI-1513
aI94
aI1850
aI1599
aI-1442
aI720
aI393
aI2000
aI1172
aI204
aI237
aI723
aI-288
aI-204
aI-246
aI224
aI1080
aI-1256
aI-143
aI-260
aI308
aI-199
aI-296
aI33
aI1465
aI-577
aI283
aI206
aI2683
aI-462
aI-485
aI1507
aI-177
aI1467
aI717
aI476
aI2143
aI-947
aI173
aI-249
aI-2487
aI268
aI848
aI-238
aI1455
aI-300
aI-841
aI-151
aI1433
aI-1860
aI-497
aI1584
aI-269
aI-851
aI-728
aI1362
aI-1201
aI-137
aI1225
aI-1212
aI521
aI-884
aI-21
aI-1303
aI-584
aI-1098
aI-1918
aI-635
aI-1463
aI325
aI-2416
aI-1815
aI-855
aI975
aI2090
aI-497
aI-541
aI-892
aI-377
aI-2
aI-403
aI450
aI339
aI-83
aI-960
aI-168
aI-33
aI44
aI2
aI1173
aI474
aI-247
aI-65
aI1042
aI1697
aI-638
aI431
aI479
aI-1335
aI-225
aI1123
aI1101
aI668
aI-956
aI830
aI19
aI-1376
aI428
aI743
aI-657
aI-1271
aI-1664
aI136
aI-1498
aI-1631
aI-104
aI311
aI-627
aI-465
aI-1421
aI1801
aI1591
aI-313
aI1128
aI1198
aI793
aI729
aI-985
aI-1706
aI-574
aI-1019
aI566
aI861
aI50
aI-283
aI-1594
aI2172
aI1015
aI-794
aI575
aI-19
aI581
aI1066
aI1196
aI1353
aI489
aI-1717
aI1625
aI265
aI-1557
aI-1649
aI-168
aI-598
aI179
aI-2206
aI-441
aI-666
aI-166
aI1480
aI1384
aI1462
aI-1028
aI-642
aI1091
aI410
aI-1832
aI-1044
aI-898
aI-526
aI79
aI-1423
aI-348
aI3433
aI2215
aI1101
aI-590
aI-1455
aI-20
aI-96
aI-172
aI-125
aI-825
aI-330
aI1309
aI-1884
aI-583
aI372
aI-1341
aI-262
aI-901
aI-962
aI250
aI-804
aI-437
aI-329
aI-524
aI1057
aI-240
aI542
aI-460
aI216
aI-1207
aI122
aI-100
aI-200
aI-191
aI-39
aI-40
aI11
aI937
aI-1394
aI-294
aI-1234
aI-243
aI1792
aI-295
aI-88
aI-999
aI-292
aI1708
aI-633
aI486
aI1381
aI-2700
aI-630
aI1380
aI-2502
aI-325
aI298
aI824
aI1787
aI3676
aI1409
aI-1626
aI-254
aI-94
aI972
aI-430
aI1189
aI55
aI2952
aI707
aI-2677
aI-282
aI587
aI-982
aI693
aI-1575
aI-1728
aI-155
aI-1663
aI1552
aI614
aI-1622
aI-761
aI47
aI202
aI1313
aI834
aI948
aI-1741
aI-1084
aI-2478
aI-1907
aI2709
aI898
aI-433
aI-1231
aI188
aI-531
aI-940
aI-440
aI1245
aI-918
aI-1423
aI-18
aI572
aI421
aI-984
aI664
aI1765
aI-33
aI-665
aI1512
aI195
aI-2213
aI-313
aI1201
aI-555
aI414
aI-737
aI139
aI-2316
aI-399
aI-1252
aI282
aI1744
aI-113
aI999
aI-1129
aI829
aI835
aI-1383
aI-813
aI1586
aI-1041
aI513
aI-1381
aI-962
aI-837
aI260
aI822
aI1104
aI-663
aI-1851
aI-819
aI-210
aI0
aI1220
aI1733
aI-1543
aI227
aI333
aI-35
aI-215
aI-50
aI298
aI7
aI-18
aI-1892
aI-703
aI-40
aI-436
aI-1426
aI-140
aI-506
aI489
aI-421
aI2435
aI749
aI-1205
aI-957
aI-111
aI-689
aI937
aI1256
aI-1122
aI-236
aI969
aI1395
aI89
aI2046
aI778
aI1682
aI989
aI1359
aI-1522
aI291
aI51
aI1719
aI-2458
aI-1041
aI-928
aI1838
aI-865
aI60
aI1211
aI1319
aI2405
aI-222
aI1072
aI-234
aI46
aI335
aI679
aI1386
aI514
aI-842
aI-101
aI1217
aI1182
aI872
aI-791
aI1741
aI1570
aI494
aI1190
aI-376
aI1752
aI-286
aI-1218
aI-1078
aI908
aI-951
aI-568
aI-830
aI828
aI-681
aI-2619
aI-302
aI-1956
aI945
aI1948
aI565
aI1678
aI1066
aI224
aI-1832
aI951
aI1637
aI-1745
aI94
aI-138
aI-1144
aI-1325
aI246
aI-246
aI-23
aI1148
aI1562
aI632
aI-1550
aI1081
aI-495
aI-1515
aI598
aI-621
aI1545
aI425
aI-2787
aI-214
aI-371
aI742
aI-181
aI216
aI-89
aI-223
aI-1343
aI741
aI394
aI671
aI369
aI376
aI-189
aI373
aI-72
aI24
aI-40
aI-53
aI60
aI190
aI-31
aI-404
aI431
aI54
aI-87
aI647
aI-623
aI-2509
aI997
aI-514
aI377
aI1540
aI-921
aI-731
aI-675
aI-2338
aI1218
aI1024
aI-428
aI-248
aI-620
aI-1056
aI537
aI119
aI71
aI-1346
aI1897
aI-568
aI432
aI1129
aI-597
aI-361
aI-1220
aI-655
aI-168
aI868
aI-2382
aI-490
aI536
aI-1942
aI515
aI-611
aI-889
aI-782
aI-597
aI2266
aI283
aI-1557
aI1070
aI-270
aI-358
aI-1029
aI-697
aI774
aI1131
aI1520
aI-436
aI-191
aI-633
aI1052
aI731
aI-406
aI1
aI1045
aI14
aI735
aI-235
aI-689
aI880
aI2832
aI172
aI621
aI276
aI-459
aI-1126
aI951
aI-1545
aI-1329
aI-370
aI694
aI1057
aI-954
aI188
aI234
aI-1262
aI-628
aI-2156
aI655
aI-2659
aI-1402
aI-963
aI875
aI587
aI996
aI-497
aI376
aI-657
aI1813
aI-378
aI1108
aI-958
aI1023
aI-1067
aI-235
aI-549
aI-326
aI336
aI379
aI674
aI-522
aI489
aI-362
aI120
aI111
aI30
aI-1
aI-19
aI29
aI-34
aI79
aI922
aI994
aI1540
aI1946
aI-1390
aI1794
aI60
aI1064
aI-820
aI731
aI1418
aI-422
aI-1504
aI-1399
aI1203
aI2665
aI-1269
aI-1213
aI464
aI-193
aI2067
aI-222
aI306
aI-402
aI-1029
aI728
aI-1179
aI2950
aI1849
aI1969
aI-347
aI562
aI444
aI53
aI-604
aI544
aI758
aI-793
aI-432
aI852
aI-1286
aI-1691
aI-3006
aI1106
aI856
aI283
aI-413
aI-578
aI-302
aI-2273
aI1378
aI1566
aI-361
aI2036
aI-1331
aI-1663
aI208
aI-940
aI572
aI58
aI-1408
aI-228
aI983
aI453
aI1927
aI540
aI718
aI-104
aI-275
aI1082
aI-506
aI383
aI-1100
aI1672
aI-1291
aI-301
aI-1360
aI1919
aI-511
aI2455
aI-1026
aI-400
aI903
aI543
aI0
aI1085
aI1045
aI-260
aI277
aI-36
aI1850
aI231
aI-426
aI-731
aI-1967
aI212
aI-821
aI-558
aI-433
aI1427
aI-955
aI-980
aI-490
aI-1796
aI2303
aI-731
aI677
aI1271
aI-488
aI-103
aI469
aI324
aI-360
aI94
aI-153
aI68
aI-67
aI23
aI-677
aI-2528
aI1027
aI-562
aI1942
aI-41
aI-1410
aI1245
aI691
aI510
aI-83
aI869
aI-517
aI-412
aI-1151
aI147
aI-641
aI-561
aI-209
aI-1159
aI2023
aI800
aI893
aI688
aI-446
aI-2343
aI-220
aI440
aI-794
aI763
aI42
aI1321
aI-404
aI752
aI576
aI7
aI-1049
aI-1533
aI2936
aI794
aI97
aI-1422
aI-371
aI-3069
aI-690
aI338
aI-199
aI-412
aI507
aI1552
aI-111
aI-584
aI-968
aI-1789
aI577
aI361
aI-2518
aI-262
aI-911
aI-101
aI-462
aI-1325
aI356
aI847
aI2300
aI-376
aI331
aI1451
aI408
aI588
aI1559
aI-568
aI1168
aI1408
aI-1551
aI2106
aI-41
aI171
aI2896
aI-155
aI-3133
aI516
aI-444
aI-2833
aI-2318
aI-2575
aI862
aI1263
aI-1251
aI795
aI-1842
aI829
aI1586
aI-1476
aI115
aI1948
aI1819
aI187
aI823
aI-1351
aI1127
aI1193
aI267
aI-1203
aI-1238
aI-982
aI-3888
aI-1926
aI1107
aI-1470
aI1223
aI-583
aI1191
aI-966
aI777
aI-793
aI53
aI181
aI-43
aI0
aI-823
aI-481
aI445
aI1152
aI-360
aI-499
aI-251
aI-526
aI-653
aI2627
aI1476
aI-2043
aI1902
aI1908
aI-710
aI-9
aI421
aI822
aI199
aI-1410
aI812
aI1777
aI2149
aI727
aI972
aI-935
aI-1576
aI329
aI3159
aI-670
aI1391
aI37
aI1489
aI376
aI1069
aI-476
aI680
aI17
aI982
aI-978
aI501
aI995
aI123
aI473
aI-1620
aI2573
aI982
aI-1442
aI234
aI898
aI-1329
aI-1479
aI301
aI-108
aI-263
aI-231
aI-414
aI-1648
aI-98
aI1722
aI1662
aI-2082
aI-1536
aI-88
aI-1708
aI1922
aI211
aI-861
aI28
aI952
aI-29
aI-1753
aI-370
aI1069
aI-1592
aI-87
aI-150
aI-487
aI214
aI2699
aI527
aI-116
aI-907
aI880
aI1326
aI-1814
aI453
aI258
aI1624
aI160
aI-2081
aI1066
aI224
aI448
aI-658
aI1153
aI2000
aI-123
aI-591
aI-233
aI566
aI-1258
aI-1897
aI-115
aI-1824
aI568
aI1265
aI280
aI-879
aI-130
aI158
aI-125
aI293
aI-370
aI343
aI-285
aI78
aI-89
aI-20
aI-6
aI102
aI-1086
aI-856
aI-931
aI1335
aI-546
aI-1150
aI-1329
aI1861
aI2388
aI122
aI1368
aI-2645
aI-723
aI3457
aI-1715
aI-1499
aI2399
aI232
aI-220
aI-154
aI1725
aI119
aI-1577
aI-486
aI769
aI-1288
aI1706
aI1949
aI1033
aI21
aI-1244
aI1453
aI1515
aI-1814
aI543
aI1402
aI-1268
aI-1098
aI-304
aI882
aI769
aI-385
aI-1837
aI-1956
aI853
aI1068
aI-1671
aI396
aI2468
aI-2417
aI-333
aI-72
aI333
aI-437
aI-1952
aI-493
aI1534
aI-802
aI-463
aI-325
aI-915
aI1657
aI730
aI554
aI3345
aI132
aI-1519
aI207
aI3645
aI-680
aI-939
aI486
aI-2465
aI-398
aI1539
aI593
aI1005
aI2143
aI-500
aI-2343
aI2468
aI-600
aI-610
aI-107
aI-3584
aI-850
aI-845
aI-1381
aI-2034
aI-105
aI-476
aI-50
aI-790
aI528
aI2105
aI696
aI-269
aI-253
aI-2109
aI851
aI-925
aI-685
aI-958
aI915
aI6
aI-2404
aI-1351
aI128
aI-670
aI-207
aI6
aI-648
aI-504
aI-320
aI233
aI34
aI-202
aI6
aI6
aI-1410
aI-293
aI157
aI698
aI500
aI577
aI111
aI787
aI-1070
aI2014
aI2127
aI-386
aI-33
aI143
aI1150
aI-668
aI1185
aI1584
aI-673
aI-1638
aI98
aI631
aI-569
aI-612
aI1756
aI1381
aI-578
aI-1570
aI-275
aI672
aI1365
aI1259
aI159
aI1059
aI-560
aI846
aI1255
aI955
aI187
aI1270
aI-880
aI965
aI-3214
aI-1021
aI-2140
aI1609
aI-87
aI85
aI-1487
aI-1522
aI-735
aI-544
aI797
aI80
aI811
aI908
aI381
aI-521
aI1509
aI-1546
aI83
aI-978
aI1002
aI-1772
aI691
aI-447
aI-278
aI1461
aI-215
aI-973
aI-629
aI301
aI-280
aI1415
aI-1393
aI1156
aI2175
aI-1850
aI-265
aI1217
aI293
aI1949
aI-624
aI-94
aI459
aI542
aI79
aI-928
aI1185
aI-241
aI-935
aI436
aI-1131
aI2351
aI-110
aI-760
aI-784
aI1872
aI710
aI2359
aI-703
aI-18
aI261
aI-605
aI-1155
aI-1558
aI1820
aI-201
aI154
aI-39
aI-458
aI1499
aI986
aI316
aI-383
aI33
aI-194
aI158
aI23
aI25
aI1310
aI1838
aI-785
aI-1564
aI1834
aI836
aI204
aI30
aI-1178
aI-503
aI334
aI-1250
aI-65
aI1594
aI1654
aI-585
aI384
aI1809
aI202
aI-373
aI1598
aI-1589
aI218
aI-76
aI320
aI31
aI-1595
aI-895
aI3176
aI-532
aI-702
aI1371
aI833
aI253
aI-1511
aI1764
aI1288
aI-1112
aI-3009
aI-1017
aI53
aI-2079
aI-946
aI-597
aI-576
aI329
aI-60
aI86
aI47
aI-2019
aI-122
aI360
aI11
aI561
aI-37
aI-971
aI1843
aI-637
aI1441
aI-1771
aI750
aI-670
aI-532
aI-962
aI-663
aI2597
aI1361
aI-1464
aI1491
aI639
aI-296
aI1909
aI-1719
aI-712
aI-1043
aI-153
aI-1725
aI-252
aI-1409
aI-1792
aI1258
aI1841
aI698
aI1406
aI2858
aI319
aI-2168
aI-343
aI887
aI-1806
aI-979
aI-1114
aI274
aI1208
aI1293
aI1074
aI730
aI1315
aI-859
aI1126
aI213
aI-281
aI-1445
aI-442
aI42
aI-1165
aI734
aI629
aI318
aI1026
aI-943
aI793
aI-338
aI8
aI-314
aI521
aI121
aI152
aI-25
aI-49
aI1246
aI281
aI298
aI-600
aI-155
aI37
aI-1116
aI1305
aI-808
aI-1868
aI-93
aI-962
aI1163
aI-375
aI672
aI-467
aI816
aI-667
aI-942
aI-18
aI1656
aI-907
aI318
aI69
aI242
aI154
aI1321
aI-1470
aI686
aI900
aI-340
aI590
aI1515
aI1068
aI1641
aI1000
aI-398
aI424
aI-910
aI-452
aI-410
aI-1111
aI-61
aI518
aI-324
aI436
aI1262
aI2899
aI-248
aI-922
aI732
aI2813
aI2029
aI1783
aI813
aI-431
aI1519
aI-1607
aI631
aI-1181
aI-788
aI-1554
aI1003
aI-1703
aI-538
aI-1713
aI757
aI-1876
aI-405
aI44
aI1725
aI1151
aI-2707
aI1286
aI-491
aI298
aI247
aI1843
aI-1961
aI-835
aI2604
aI1211
aI1650
aI1477
aI2728
aI862
aI-493
aI-194
aI119
aI-295
aI-119
aI60
aI767
aI1323
aI141
aI-1859
aI-1304
aI-412
aI-1020
aI770
aI-203
aI319
aI-160
aI-878
aI-811
aI1099
aI1141
aI961
aI123
aI996
aI-136
aI167
aI-255
aI177
aI-242
aI12
aI10
aI116
aI39
aI6
aI292
aI1280
aI-447
aI2061
aI-219
aI-1104
aI-1208
aI-194
aI-1071
aI554
aI-1861
aI66
aI260
aI1021
aI98
aI-246
aI521
aI1540
aI1173
aI1684
aI-3102
aI-630
aI1000
aI-1471
aI-85
aI-328
aI-867
aI2090
aI-572
aI1425
aI1465
aI-937
aI-240
aI632
aI673
aI42
aI164
aI1189
aI1588
aI-616
aI992
aI1865
aI722
aI482
aI-371
aI-1819
aI-257
aI-135
aI606
aI1980
aI-933
aI-1136
aI476
aI-171
aI-671
aI-1637
aI-771
aI-787
aI-1862
aI777
aI2124
aI3303
aI-51
aI825
aI-637
aI97
aI986
aI-1628
aI-1434
aI699
aI-142
aI1588
aI266
aI-1772
aI1363
aI-1714
aI-2267
aI-896
aI-2291
aI1051
aI-2222
aI-1343
aI635
aI-848
aI-425
aI1718
aI2385
aI1518
aI-219
aI913
aI1968
aI-1197
aI619
aI-2326
aI-1238
aI-117
aI-1107
aI-1092
aI-1338
aI-1346
aI1585
aI350
aI-311
aI6
aI301
aI1246
aI929
aI224
aI1166
aI964
aI408
aI-439
aI67
aI422
aI384
aI-359
aI73
aI-84
aI-40
aI47
aI683
aI821
aI993
aI-222
aI1819
aI1138
aI-120
aI1030
aI-844
aI-467
aI658
aI2730
aI540
aI-46
aI439
aI910
aI389
aI296
aI1545
aI1268
aI-99
aI-232
aI-1090
aI-929
aI-802
aI-388
aI1354
aI-651
aI-1211
aI-242
aI-70
aI1240
aI-457
aI-838
aI592
aI2006
aI-551
aI549
aI-2388
aI-156
aI215
aI883
aI666
aI1073
aI-1132
aI-1118
aI-2473
aI-1112
aI458
aI1114
aI-115
aI747
aI-2400
aI1946
aI-530
aI-1800
aI-425
aI-118
aI-819
aI-2607
aI-392
aI11
aI214
aI-365
aI-924
aI-1699
aI420
aI-2042
aI-608
aI22
aI385
aI4147
aI-514
aI-3771
aI-44
aI613
aI-1676
aI-902
aI-444
aI-1572
aI1172
aI791
aI683
aI-71
aI-1184
aI758
aI-1008
aI-402
aI305
aI-1669
aI1043
aI-957
aI1017
aI-2351
aI263
aI-660
aI-1660
aI519
aI-312
aI-348
aI-1131
aI2251
aI361
aI-1372
aI-818
aI-605
aI-377
aI-382
aI293
aI121
aI-840
aI-230
aI-218
aI-235
aI-297
aI319
aI61
aI-94
aI52
aI-27
aI1759
aI1666
aI836
aI30
aI-1394
aI2462
aI285
aI1082
aI1922
aI84
aI-813
aI-1500
aI301
aI-872
aI1755
aI-152
aI307
aI2214
aI-1331
aI-1386
aI-338
aI-1804
aI-174
aI2670
aI754
aI-950
aI-110
aI55
aI542
aI-3343
aI-360
aI732
aI275
aI-689
aI1109
aI814
aI1059
aI-859
aI418
aI-829
aI-2344
aI-613
aI-474
aI-1213
aI-357
aI882
aI381
aI-817
aI332
aI552
aI-870
aI-1859
aI638
aI150
aI668
aI739
aI26
aI-922
aI1865
aI-1541
aI-1352
aI-1050
aI986
aI-2208
aI669
aI-896
aI-1624
aI1041
aI1107
aI621
aI-159
aI-1749
aI-839
aI-1196
aI-61
aI-1854
aI-372
aI-2182
aI402
aI-701
aI1321
aI-3617
aI-2052
aI638
aI-92
aI-257
aI1029
aI230
aI2316
aI-1387
aI629
aI-101
aI-710
aI1576
aI-890
aI-2717
aI794
aI1787
aI1023
aI1310
aI-116
aI-1165
aI897
aI754
aI440
aI-1714
aI-571
aI498
aI-901
aI68
aI-451
aI-122
aI-1565
aI528
aI-65
aI169
aI-318
aI-135
aI-107
aI-43
aI1337
aI2162
aI2344
aI-140
aI-844
aI587
aI-1135
aI687
aI2011
aI1917
aI-563
aI-197
aI-402
aI704
aI-119
aI1812
aI-61
aI-205
aI426
aI652
aI976
aI-1121
aI449
aI172
aI-426
aI-131
aI2468
aI226
aI346
aI-438
aI1047
aI-2107
aI-2355
aI-1565
aI101
aI-1941
aI-120
aI-501
aI375
aI-397
aI-407
aI1788
aI268
aI-1380
aI289
aI-148
aI-52
aI1252
aI255
aI438
aI351
aI776
aI726
aI-196
aI1134
aI-2146
aI285
aI-448
aI-398
aI-518
aI956
aI2419
aI-171
aI840
aI-1359
aI835
aI-447
aI-552
aI-973
aI-1617
aI295
aI249
aI1117
aI-1486
aI608
aI-724
aI-734
aI858
aI-163
aI-1583
aI271
aI-1816
aI-1325
aI1079
aI-2200
aI2136
aI2317
aI144
aI717
aI698
aI1350
aI-131
aI296
aI-278
aI-1215
aI-741
aI822
aI568
aI786
aI-694
aI-140
aI1557
aI-628
aI28
aI62
aI-146
aI-712
aI-342
aI-495
aI-183
aI-367
aI-496
aI161
aI186
aI190
aI8
aI-202
aI179
aI39
aI7
aI-286
aI-1464
aI1339
aI2
aI-2340
aI-679
aI1383
aI-161
aI1167
aI-1628
aI312
aI-451
aI-326
aI633
aI-1853
aI-694
aI-181
aI-1341
aI-157
aI1225
aI-566
aI1421
aI-542
aI561
aI1367
aI871
aI-326
aI-1516
aI-1755
aI1578
aI104
aI-1354
aI526
aI325
aI1018
aI-2279
aI-290
aI-354
aI3050
aI427
aI2130
aI-277
aI-304
aI60
aI627
aI1626
aI687
aI-1391
aI521
aI-3069
aI-1117
aI148
aI52
aI-1031
aI331
aI177
aI-218
aI-1956
aI-285
aI-66
aI-1011
aI1158
aI-219
aI-1653
aI260
aI-390
aI-1608
aI2402
aI-1624
aI-474
aI-1282
aI-4167
aI698
aI1644
aI-2242
aI-595
aI1670
aI-1012
aI1165
aI1464
aI298
aI-270
aI568
aI-264
aI-1283
aI-15
aI2016
aI-2093
aI-692
aI664
aI-1928
aI1120
aI-1198
aI1557
aI-1661
aI-744
aI-1082
aI-1266
aI-775
aI503
aI781
aI-762
aI-69
aI69
aI2096
aI1398
aI1413
aI141
aI-682
aI-731
aI-197
aI247
aI141
aI-424
aI336
aI-151
aI51
aI261
aI-9
aI-26
aI887
aI-629
aI239
aI1904
aI1227
aI-658
aI-1417
aI1407
aI1442
aI-693
aI-2198
aI327
aI26
aI-1324
aI-1854
aI-1192
aI-115
aI86
aI1388
aI1607
aI-1720
aI1447
aI1228
aI-361
aI-344
aI1861
aI540
aI-229
aI-1814
aI1687
aI1006
aI-850
aI-1719
aI-372
aI1177
aI-1480
aI-1068
aI-534
aI1084
aI-22
aI439
aI-350
aI892
aI-1399
aI-1510
aI-280
aI-359
aI211
aI509
aI141
aI2617
aI-1909
aI-945
aI1206
aI-980
aI1964
aI-1441
aI795
aI-644
aI1417
aI535
aI1002
aI326
aI1603
aI2176
aI-499
aI-1153
aI964
aI297
aI124
aI-687
aI-503
aI-57
aI-245
aI-1142
aI738
aI-172
aI-604
aI-1338
aI1990
aI-1427
aI302
aI-435
aI-1305
aI-2104
aI-249
aI830
aI277
aI-2490
aI715
aI192
aI751
aI552
aI-1760
aI-4
aI-1636
aI-1487
aI-974
aI-813
aI84
aI-1499
aI1817
aI987
aI-716
aI102
aI-919
aI454
aI-2608
aI-1136
aI1719
aI231
aI427
aI349
aI312
aI-247
aI-120
aI322
aI-5
aI17
aI-18
aI-874
aI-329
aI-280
aI727
aI-2049
aI-9
aI2010
aI-1373
aI-893
aI-1098
aI-1524
aI-432
aI-1528
aI-612
aI2422
aI1245
aI888
aI-165
aI925
aI-383
aI-305
aI-1046
aI-1353
aI1540
aI-1331
aI1390
aI1195
aI-1770
aI729
aI-1536
aI-503
aI-495
aI217
aI-691
aI-427
aI-336
aI-240
aI458
aI-1391
aI1023
aI455
aI1346
aI1893
aI1594
aI2860
aI72
aI21
aI-139
aI-1321
aI-983
aI2081
aI2005
aI614
aI-410
aI1107
aI-512
aI1249
aI772
aI775
aI729
aI-1329
aI-803
aI654
aI1120
aI-1488
aI-1724
aI-1535
aI-154
aI678
aI786
aI-192
aI-547
aI-830
aI2691
aI1273
aI-1722
aI1527
aI-429
aI-251
aI-63
aI2497
aI-542
aI-194
aI463
aI903
aI659
aI-584
aI526
aI598
aI-520
aI1975
aI845
aI-1124
aI2377
aI-135
aI1105
aI449
aI635
aI1252
aI924
aI1041
aI-1799
aI951
aI1450
aI1222
aI919
aI-67
aI1111
aI-589
aI-510
aI-587
aI-345
aI-485
aI273
aI402
aI-14
aI-30
aI-8
aI48
aI5
aI33
aI-448
aI-409
aI1078
aI2064
aI260
aI55
aI2243
aI-1581
aI411
aI681
aI2037
aI1530
aI544
aI-2125
aI777
aI217
aI-1905
aI414
aI-1422
aI334
aI1684
aI-424
aI-2018
aI-2934
aI-1743
aI-252
aI708
aI-1150
aI1708
aI-2395
aI2826
aI748
aI418
aI-808
aI1139
aI-3106
aI1227
aI-3232
aI-1184
aI-2151
aI888
aI1051
aI-461
aI-1004
aI-1519
aI-3250
aI-522
aI320
aI1560
aI761
aI-1531
aI-1406
aI-781
aI-1032
aI968
aI-89
aI515
aI-164
aI-1020
aI692
aI-389
aI137
aI849
aI362
aI-315
aI1715
aI-126
aI-14
aI-518
aI543
aI1562
aI-611
aI514
aI477
aI1843
aI-343
aI-1515
aI1474
aI61
aI-67
aI2747
aI197
aI-2130
aI28
aI-400
aI-27
aI529
aI-12
aI517
aI-1331
aI934
aI1511
aI-62
aI837
aI2572
aI31
aI-111
aI-2641
aI-430
aI-1399
aI-27
aI-188
aI-2114
aI-2070
aI68
aI-1191
aI-724
aI1102
aI-290
aI193
aI-216
aI1058
aI-567
aI-336
aI-802
aI-134
aI-148
aI44
aI-31
aI-3141
aI1391
aI-1594
aI-206
aI-2768
aI1021
aI250
aI-1617
aI-2725
aI2928
aI-227
aI-1543
aI491
aI1507
aI1166
aI1006
aI652
aI497
aI501
aI-1017
aI-58
aI-2101
aI-1214
aI-146
aI1404
aI-445
aI406
aI1470
aI1243
aI-3079
aI-334
aI18
aI688
aI509
aI-97
aI17
aI1318
aI1357
aI-2066
aI631
aI11
aI1611
aI-172
aI1220
aI465
aI-2018
aI-10
aI-2005
aI-1446
aI2205
aI-1710
aI1433
aI-1203
aI-2209
aI-140
aI-1017
aI1249
aI1003
aI1028
aI565
aI1716
aI1147
aI-1029
aI103
aI-3084
aI1393
aI832
aI-1312
aI-242
aI131
aI-215
aI-1286
aI358
aI347
aI2324
aI-331
aI31
aI-1678
aI-658
aI-645
aI-52
aI-2603
aI-316
aI948
aI67
aI-520
aI1163
aI-54
aI2870
aI402
aI701
aI-810
aI34
aI876
aI-464
aI624
aI1131
aI912
aI44
aI1020
aI-1538
aI-2574
aI123
aI698
aI-472
aI1114
aI24
aI1067
aI-1799
aI258
aI175
aI414
aI-820
aI212
aI-43
aI156
aI67
aI-194
aI-58
aI-36
aI-70
aI1869
aI423
aI-213
aI1100
aI733
aI-2051
aI1546
aI-42
aI-2895
aI-1388
aI69
aI-506
aI968
aI-1040
aI401
aI106
aI156
aI-540
aI528
aI-232
aI-2265
aI-1435
aI1575
aI1229
aI-1042
aI436
aI958
aI181
aI-3244
aI-343
aI536
aI-1048
aI721
aI1390
aI2332
aI1639
aI2245
aI805
aI-718
aI-51
aI-2606
aI-342
aI-1204
aI921
aI-2068
aI-273
aI2366
aI494
aI-1262
aI-1873
aI-1169
aI2248
aI-262
aI1485
aI1567
aI-1038
aI1620
aI110
aI-648
aI-302
aI-890
aI199
aI-1328
aI-158
aI725
aI148
aI-209
aI582
aI753
aI2760
aI241
aI1974
aI1984
aI-93
aI330
aI-1494
aI915
aI-998
aI-720
aI-1776
aI-972
aI-946
aI-442
aI448
aI682
aI275
aI-250
aI-1317
aI640
aI-1384
aI-1209
aI-1902
aI1711
aI1654
aI-1790
aI787
aI-625
aI-1071
aI26
aI561
aI286
aI-503
aI1327
aI-397
aI-1026
aI-1148
aI-143
aI360
aI32
aI70
aI1077
aI-1249
aI261
aI292
aI598
aI-2
aI29
aI-55
aI14
aI-388
aI-222
aI-934
aI844
aI-2169
aI-1173
aI-175
aI956
aI-1006
aI702
aI1794
aI-854
aI-244
aI-1199
aI1239
aI1840
aI-776
aI-1577
aI-510
aI-1402
aI-89
aI267
aI-814
aI790
aI241
aI-1579
aI-346
aI-209
aI364
aI-2334
aI-795
aI-176
aI533
aI1030
aI-199
aI213
aI505
aI-177
aI590
aI1643
aI-1675
aI1930
aI-650
aI-428
aI240
aI-547
aI1942
aI2423
aI-2625
aI2084
aI778
aI790
aI1218
aI-1500
aI-822
aI-810
aI442
aI126
aI287
aI449
aI-724
aI728
aI467
aI-1099
aI357
aI-903
aI590
aI624
aI-303
aI-1338
aI-528
aI-46
aI52
aI-944
aI1697
aI-329
aI33
aI645
aI32
aI-1073
aI-63
aI-1256
aI778
aI-1018
aI-204
aI292
aI170
aI890
aI85
aI1095
aI1429
aI-992
aI-698
aI-727
aI-122
aI-2261
aI1890
aI1923
aI-20
aI97
aI944
aI-658
aI545
aI-141
aI-1439
aI738
aI-1747
aI253
aI320
aI-328
aI477
aI-1189
aI317
aI96
aI36
aI-350
aI-176
aI84
aI-10
aI29
aI525
aI1966
aI973
aI724
aI-637
aI-327
aI312
aI62
aI-1912
aI264
aI2213
aI109
aI-146
aI2058
aI-808
aI-320
aI1158
aI263
aI778
aI358
aI-144
aI385
aI625
aI235
aI205
aI-832
aI-360
aI990
aI244
aI-438
aI-351
aI-1096
aI207
aI-300
aI-1067
aI1261
aI804
aI1398
aI1082
aI-363
aI365
aI-677
aI-1567
aI1138
aI761
aI-2771
aI-2932
aI-1951
aI1219
aI295
aI-3278
aI-178
aI-1272
aI-1043
aI-1927
aI-190
aI265
aI-1266
aI-1161
aI959
aI2456
aI918
aI176
aI-1468
aI-1037
aI1410
aI-366
aI-330
aI-1350
aI-684
aI475
aI1340
aI-1135
aI-1179
aI300
aI-732
aI419
aI212
aI84
aI-112
aI727
aI-1303
aI869
aI-638
aI-577
aI2037
aI1565
aI-626
aI1691
aI768
aI-2754
aI379
aI1558
aI-1154
aI-526
aI504
aI-219
aI-758
aI-2203
aI-255
aI714
aI291
aI-1198
aI-470
aI-794
aI-1431
aI2919
aI226
aI961
aI258
aI-1249
aI538
aI-209
aI-337
aI-127
aI-222
aI15
aI-192
aI61
aI51
aI-1850
aI268
aI-898
aI1574
aI17
aI660
aI-1981
aI680
aI-14
aI437
aI1054
aI1093
aI475
aI74
aI-678
aI900
aI-136
aI16
aI507
aI-390
aI-1432
aI435
aI-621
aI-938
aI-809
aI-207
aI-878
aI206
aI-2514
aI1336
aI236
aI457
aI-328
aI931
aI845
aI577
aI-229
aI1038
aI-264
aI385
aI1399
aI307
aI89
aI1015
aI634
aI1411
aI-176
aI2445
aI-2100
aI-1738
aI-16
aI27
aI1985
aI-991
aI1250
aI534
aI795
aI772
aI-127
aI-1288
aI1198
aI-942
aI-1688
aI-843
aI-672
aI-1235
aI-997
aI-913
aI-250
aI-371
aI-232
aI-161
aI547
aI1971
aI279
aI-381
aI1019
aI-1413
aI452
aI848
aI16
aI437
aI158
aI634
aI852
aI-2664
aI-535
aI-415
aI-1933
aI1372
aI902
aI134
aI-2709
aI1605
aI1428
aI-1506
aI913
aI-657
aI-32
aI-927
aI-681
aI-1163
aI280
aI-923
aI-250
aI-1084
aI168
aI668
aI402
aI-114
aI-831
aI244
aI-336
aI167
aI-231
aI150
aI147
aI301
aI-15
aI52
aI-3584
aI-708
aI82
aI-1241
aI-59
aI62
aI-875
aI-215
aI-1432
aI294
aI1817
aI-434
aI-1153
aI-981
aI1394
aI443
aI491
aI475
aI-62
aI-1298
aI738
aI-939
aI813
aI67
aI940
aI834
aI-1124
aI-1422
aI273
aI1152
aI814
aI1138
aI415
aI-653
aI-1107
aI356
aI703
aI240
aI1289
aI1427
aI-77
aI-826
aI-2078
aI307
aI1325
aI637
aI1027
aI-1095
aI-1207
aI-1313
aI-353
aI363
aI611
aI-819
aI-1889
aI355
aI123
aI-58
aI-1987
aI16
aI331
aI221
aI433
aI-859
aI-1421
aI2151
aI493
aI1265
aI-272
aI-1586
aI25
aI-48
aI722
aI2083
aI-237
aI486
aI612
aI1348
aI-1068
aI-155
aI366
aI1381
aI9
aI-537
aI372
aI-327
aI-1351
aI-440
aI-258
aI520
aI1853
aI-394
aI-787
aI1745
aI168
aI516
aI608
aI391
aI-528
aI1120
aI371
aI900
aI1026
aI1339
aI-518
aI-1661
aI2475
aI773
aI240
aI222
aI-545
aI1387
aI244
aI183
aI227
aI809
aI137
aI155
aI-27
aI85
aI828
aI1584
aI-104
aI2015
aI1103
aI393
aI-319
aI599
aI-1285
aI-724
aI-2912
aI-266
aI-271
aI2155
aI-875
aI127
aI2931
aI1630
aI1237
aI-672
aI883
aI-159
aI530
aI252
aI-867
aI680
aI500
aI-367
aI331
aI631
aI-3745
aI-651
aI406
aI251
aI-1000
aI1057
aI-137
aI-786
aI-1585
aI-1251
aI-1847
aI-440
aI399
aI441
aI176
aI-1394
aI-846
aI-2046
aI253
aI-224
aI-198
aI-398
aI-144
aI-797
aI-123
aI-408
aI247
aI-1514
aI2159
aI-8
aI-86
aI-55
aI-1519
aI2026
aI181
aI-255
aI171
aI-1602
aI717
aI932
aI-662
aI-887
aI-685
aI1375
aI-2141
aI-153
aI594
aI-931
aI-752
aI189
aI2875
aI61
aI-228
aI-1646
aI401
aI1117
aI1342
aI2538
aI1503
aI-993
aI-660
aI1268
aI1854
aI-511
aI943
aI1155
aI-711
aI446
aI-505
aI734
aI1012
aI-457
aI492
aI-922
aI305
aI559
aI7
aI-919
aI-425
aI-110
aI-1201
aI1629
aI-218
aI48
aI318
aI220
aI381
aI266
aI-8
aI-62
aI-342
aI484
aI-255
aI1717
aI-1362
aI664
aI-396
aI-817
aI48
aI1578
aI-339
aI1370
aI231
aI-208
aI1994
aI66
aI-834
aI-137
aI1616
aI-2839
aI741
aI-589
aI-489
aI-1036
aI-2567
aI-3
aI-143
aI1154
aI-483
aI-401
aI80
aI914
aI1847
aI-376
aI-676
aI-700
aI-246
aI-404
aI-1011
aI-1059
aI-661
aI2299
aI-1084
aI2007
aI258
aI-10
aI521
aI1928
aI-1128
aI451
aI-156
aI2157
aI297
aI-875
aI-1056
aI-1419
aI1462
aI-2177
aI874
aI-1330
aI-612
aI134
aI562
aI347
aI-2289
aI-570
aI-134
aI-959
aI-907
aI2276
aI-149
aI-68
aI-584
aI-1884
aI1799
aI-1889
aI-838
aI-2498
aI750
aI-2185
aI1046
aI-1691
aI-1259
aI1135
aI-999
aI731
aI1195
aI1201
aI524
aI96
aI1346
aI-236
aI-217
aI511
aI-670
aI842
aI698
aI1809
aI-402
aI713
aI1323
aI-1460
aI1663
aI-320
aI853
aI1447
aI-571
aI645
aI-1045
aI-53
aI-256
aI-151
aI-214
aI-175
aI-35
aI-397
aI-329
aI-66
aI-76
aI45
aI577
aI151
aI306
aI-1947
aI-776
aI145
aI1272
aI-1320
aI2081
aI1022
aI-438
aI-938
aI-2307
aI-593
aI2112
aI-2084
aI-306
aI1831
aI-1588
aI117
aI-938
aI162
aI660
aI-37
aI-809
aI1507
aI-739
aI-885
aI2515
aI1236
aI535
aI-154
aI731
aI485
aI-1156
aI-1739
aI1487
aI-1648
aI173
aI-90
aI1147
aI-2386
aI-1289
aI1495
aI183
aI1386
aI2294
aI765
aI1349
aI856
aI2258
aI1546
aI-1959
aI1426
aI-801
aI-1720
aI-153
aI-1009
aI1741
aI1267
aI304
aI-2713
aI504
aI-963
aI-865
aI1047
aI-787
aI595
aI-511
aI2633
aI980
aI580
aI-2227
aI-717
aI390
aI625
aI-272
aI920
aI-927
aI-1602
aI213
aI205
aI1375
aI1523
aI456
aI-558
aI123
aI-2389
aI1533
aI-1022
aI-962
aI-979
aI1598
aI439
aI-1074
aI348
aI-1807
aI1844
aI1929
aI206
aI1411
aI-452
aI962
aI-1182
aI1835
aI-151
aI-708
aI-286
aI-102
aI443
aI223
aI544
aI-380
aI30
aI406
aI127
aI-40
aI178
aI37
aI103
aI2525
aI1258
aI-1011
aI-2742
aI1151
aI-2341
aI1184
aI-2344
aI709
aI-6
aI8
aI670
aI2029
aI-271
aI-455
aI-1833
aI-1400
aI-676
aI-828
aI661
aI1064
aI-334
aI648
aI-507
aI1332
aI-7
aI364
aI2237
aI-1752
aI548
aI-582
aI-1826
aI-709
aI588
aI342
aI-198
aI670
aI-1051
aI197
aI351
aI2269
aI-1411
aI399
aI-423
aI809
aI-193
aI-293
aI-578
aI-27
aI-1145
aI-1420
aI2306
aI-1134
aI-523
aI247
aI-685
aI782
aI1344
aI-284
aI-179
aI1989
aI2212
aI353
aI1846
aI1879
aI231
aI797
aI-2396
aI-695
aI-1999
aI165
aI-697
aI468
aI-1081
aI-302
aI283
aI1008
aI2373
aI894
aI-1395
aI-756
aI141
aI907
aI2036
aI364
aI494
aI-404
aI388
aI-32
aI692
aI233
aI-1027
aI996
aI-2381
aI795
aI1378
aI-168
aI-1140
aI1899
aI-2034
aI-1163
aI1575
aI-1149
aI346
aI1333
aI1418
aI-345
aI809
aI561
aI-402
aI1188
aI962
aI514
aI577
aI8
aI-382
aI-108
aI-33
aI-76
aI-12
aI-628
aI951
aI-1504
aI-1145
aI437
aI517
aI-705
aI-1039
aI695
aI1731
aI-714
aI345
aI940
aI145
aI1576
aI1109
aI2194
aI560
aI730
aI-1785
aI544
aI-809
aI305
aI111
aI-787
aI447
aI1148
aI-344
aI1378
aI1757
aI205
aI-408
aI27
aI-840
aI-556
aI203
aI2030
aI-1126
aI-3088
aI-859
aI-3672
aI2947
aI-2441
aI-306
aI-2564
aI1448
aI226
aI89
aI-1414
aI1408
aI1319
aI-2394
aI-1218
aI-1283
aI3013
aI483
aI1359
aI-1206
aI1062
aI-1989
aI-1173
aI-1948
aI-442
aI948
aI-1041
aI-1327
aI374
aI450
aI-515
aI1317
aI-201
aI-1276
aI539
aI-2219
aI1003
aI593
aI16
aI-1099
aI1096
aI-882
aI1415
aI1465
aI-248
aI1853
aI-192
aI-2599
aI-1660
aI312
aI-56
aI-1501
aI1778
aI427
aI-1715
aI1898
aI410
aI398
aI-527
aI2547
aI916
aI-17
aI-1135
aI1072
aI1007
aI-1372
aI-495
aI-1175
aI-1342
aI-1123
aI-553
aI886
aI-791
aI419
aI-75
aI111
aI-63
aI429
aI135
aI186
aI-39
aI28
aS'long'
p2
tp3
Rp4
F37067246.0
I00
tp5
.